
arch/arm/boot/compressed/vmlinux:     file format elf32-littlearm


Disassembly of section .text:

00000000 <start>:
       0:	e1a00000 	nop			; (mov r0, r0)
       4:	e1a00000 	nop			; (mov r0, r0)
       8:	e1a00000 	nop			; (mov r0, r0)
       c:	e1a00000 	nop			; (mov r0, r0)
      10:	e1a00000 	nop			; (mov r0, r0)
      14:	e1a00000 	nop			; (mov r0, r0)
      18:	e1a00000 	nop			; (mov r0, r0)
      1c:	e1a00000 	nop			; (mov r0, r0)
      20:	ea000002 	b	30 <start+0x30>
      24:	016f2818 	.word	0x016f2818
      28:	00000000 	.word	0x00000000
      2c:	002a3638 	.word	0x002a3638
      30:	e10f9000 	mrs	r9, CPSR
      34:	eb000db9 	bl	3720 <__hyp_stub_install>
      38:	e1a07001 	mov	r7, r1
      3c:	e1a08002 	mov	r8, r2
      40:	e10f2000 	mrs	r2, CPSR
      44:	e3120003 	tst	r2, #3
      48:	1a000001 	bne	54 <not_angel>
      4c:	e3a00017 	mov	r0, #23
      50:	ef123456 	svc	0x00123456

00000054 <not_angel>:
      54:	e10f0000 	mrs	r0, CPSR
      58:	e220001a 	eor	r0, r0, #26
      5c:	e310001f 	tst	r0, #31
      60:	e3c0001f 	bic	r0, r0, #31
      64:	e38000d3 	orr	r0, r0, #211	; 0xd3
      68:	1a000004 	bne	80 <not_angel+0x2c>
      6c:	e3800c01 	orr	r0, r0, #256	; 0x100
      70:	e28fe00c 	add	lr, pc, #12
      74:	e16ff000 	msr	SPSR_fsxc, r0
      78:	e12ef30e 	.word	0xe12ef30e
      7c:	e160006e 	.word	0xe160006e
      80:	e121f000 	msr	CPSR_c, r0
      84:	e16ff009 	msr	SPSR_fsxc, r9
	...
      a0:	e1a0400f 	mov	r4, pc
      a4:	e204433e 	and	r4, r4, #-134217728	; 0xf8000000
      a8:	e2844902 	add	r4, r4, #32768	; 0x8000
      ac:	e1a0000f 	mov	r0, pc
      b0:	e1500004 	cmp	r0, r4
      b4:	359f023c 	ldrcc	r0, [pc, #572]	; 2f8 <LC0+0x20>
      b8:	3080000f 	addcc	r0, r0, pc
      bc:	31540000 	cmpcc	r4, r0
      c0:	33844001 	orrcc	r4, r4, #1
      c4:	2b00008d 	blcs	300 <cache_on>

000000c8 <restart>:
      c8:	e28f0f82 	add	r0, pc, #520	; 0x208
      cc:	e8901c4e 	ldm	r0, {r1, r2, r3, r6, sl, fp, ip}
      d0:	e590d01c 	ldr	sp, [r0, #28]
      d4:	e0400001 	sub	r0, r0, r1
      d8:	e0866000 	add	r6, r6, r0
      dc:	e08aa000 	add	sl, sl, r0
      e0:	e5da9000 	ldrb	r9, [sl]
      e4:	e5dae001 	ldrb	lr, [sl, #1]
      e8:	e189940e 	orr	r9, r9, lr, lsl #8
      ec:	e5dae002 	ldrb	lr, [sl, #2]
      f0:	e5daa003 	ldrb	sl, [sl, #3]
      f4:	e189980e 	orr	r9, r9, lr, lsl #16
      f8:	e1899c0a 	orr	r9, r9, sl, lsl #24
      fc:	e08dd000 	add	sp, sp, r0
     100:	e28da801 	add	sl, sp, #65536	; 0x10000
     104:	e3a05000 	mov	r5, #0
     108:	e596e000 	ldr	lr, [r6]
     10c:	e59f1818 	ldr	r1, [pc, #2072]	; 92c <__armv3_mmu_cache_flush+0xc>
     110:	e15e0001 	cmp	lr, r1
     114:	1a00001e 	bne	194 <dtb_check_done>
     118:	e28dd801 	add	sp, sp, #65536	; 0x10000
     11c:	e92d500f 	push	{r0, r1, r2, r3, ip, lr}
     120:	e1a00008 	mov	r0, r8
     124:	e1a01006 	mov	r1, r6
     128:	e04d2006 	sub	r2, sp, r6
     12c:	eb0014af 	bl	53f0 <atags_to_fdt>
     130:	e3500001 	cmp	r0, #1
     134:	e2440902 	sub	r0, r4, #32768	; 0x8000
     138:	e3c00001 	bic	r0, r0, #1
     13c:	e2800c01 	add	r0, r0, #256	; 0x100
     140:	e1a01006 	mov	r1, r6
     144:	e04d2006 	sub	r2, sp, r6
     148:	0b0014a8 	bleq	53f0 <atags_to_fdt>
     14c:	e8bd500f 	pop	{r0, r1, r2, r3, ip, lr}
     150:	e24dd801 	sub	sp, sp, #65536	; 0x10000
     154:	e1a08006 	mov	r8, r6
     158:	e59f57d0 	ldr	r5, [pc, #2000]	; 930 <__armv3_mmu_cache_flush+0x10>
     15c:	e28f10bc 	add	r1, pc, #188	; 0xbc
     160:	e0461001 	sub	r1, r6, r1
     164:	e0551001 	subs	r1, r5, r1
     168:	80899001 	addhi	r9, r9, r1
     16c:	e5965004 	ldr	r5, [r6, #4]
     170:	e0251865 	eor	r1, r5, r5, ror #16
     174:	e3c118ff 	bic	r1, r1, #16711680	; 0xff0000
     178:	e1a05465 	ror	r5, r5, #8
     17c:	e0255421 	eor	r5, r5, r1, lsr #8
     180:	e2855007 	add	r5, r5, #7
     184:	e3c55007 	bic	r5, r5, #7
     188:	e0866005 	add	r6, r6, r5
     18c:	e08aa005 	add	sl, sl, r5
     190:	e08dd005 	add	sp, sp, r5

00000194 <dtb_check_done>:
     194:	e28aa901 	add	sl, sl, #16384	; 0x4000
     198:	e154000a 	cmp	r4, sl
     19c:	2a00001f 	bcs	220 <wont_overwrite>
     1a0:	e084a009 	add	sl, r4, r9
     1a4:	e28f9074 	add	r9, pc, #116	; 0x74
     1a8:	e15a0009 	cmp	sl, r9
     1ac:	9a00001b 	bls	220 <wont_overwrite>
     1b0:	e28aac09 	add	sl, sl, #2304	; 0x900
     1b4:	e3caa0ff 	bic	sl, sl, #255	; 0xff
     1b8:	e24f50f8 	sub	r5, pc, #248	; 0xf8
     1bc:	e3c5501f 	bic	r5, r5, #31
     1c0:	e14f0000 	mrs	r0, SPSR
     1c4:	e200001f 	and	r0, r0, #31
     1c8:	e350001a 	cmp	r0, #26
     1cc:	1a000003 	bne	1e0 <dtb_check_done+0x4c>
     1d0:	eb000d67 	bl	3774 <__hyp_get_vectors>
     1d4:	e0400005 	sub	r0, r0, r5
     1d8:	e080000a 	add	r0, r0, sl
     1dc:	eb000d65 	bl	3778 <__hyp_set_vectors>
     1e0:	e0469005 	sub	r9, r6, r5
     1e4:	e289901f 	add	r9, r9, #31
     1e8:	e3c9901f 	bic	r9, r9, #31
     1ec:	e0896005 	add	r6, r9, r5
     1f0:	e089900a 	add	r9, r9, sl
     1f4:	e9365c0f 	ldmdb	r6!, {r0, r1, r2, r3, sl, fp, ip, lr}
     1f8:	e1560005 	cmp	r6, r5
     1fc:	e9295c0f 	stmdb	r9!, {r0, r1, r2, r3, sl, fp, ip, lr}
     200:	8afffffb 	bhi	1f4 <dtb_check_done+0x60>
     204:	e0496006 	sub	r6, r9, r6
     208:	e08dd006 	add	sp, sp, r6
     20c:	e3140001 	tst	r4, #1
     210:	0b00015a 	bleq	780 <cache_clean_flush>
     214:	e24f0f55 	sub	r0, pc, #340	; 0x154
     218:	e0800006 	add	r0, r0, r6
     21c:	e1a0f000 	mov	pc, r0

00000220 <wont_overwrite>:
     220:	e1901005 	orrs	r1, r0, r5
     224:	0a00000d 	beq	260 <not_relocated>
     228:	e08bb000 	add	fp, fp, r0
     22c:	e08cc000 	add	ip, ip, r0
     230:	e0822000 	add	r2, r2, r0
     234:	e0833000 	add	r3, r3, r0
     238:	e59b1000 	ldr	r1, [fp]
     23c:	e0811000 	add	r1, r1, r0
     240:	e1510002 	cmp	r1, r2
     244:	21530001 	cmpcs	r3, r1
     248:	80811005 	addhi	r1, r1, r5
     24c:	e48b1004 	str	r1, [fp], #4
     250:	e15b000c 	cmp	fp, ip
     254:	3afffff7 	bcc	238 <wont_overwrite+0x18>
     258:	e0822005 	add	r2, r2, r5
     25c:	e0833005 	add	r3, r3, r5

00000260 <not_relocated>:
     260:	e3a00000 	mov	r0, #0
     264:	e4820004 	str	r0, [r2], #4
     268:	e4820004 	str	r0, [r2], #4
     26c:	e4820004 	str	r0, [r2], #4
     270:	e4820004 	str	r0, [r2], #4
     274:	e1520003 	cmp	r2, r3
     278:	3afffff9 	bcc	264 <not_relocated+0x4>
     27c:	e3140001 	tst	r4, #1
     280:	e3c44001 	bic	r4, r4, #1
     284:	1b00001d 	blne	300 <cache_on>
     288:	e1a00004 	mov	r0, r4
     28c:	e1a0100d 	mov	r1, sp
     290:	e28d2801 	add	r2, sp, #65536	; 0x10000
     294:	e1a03007 	mov	r3, r7
     298:	eb0001dc 	bl	a10 <decompress_kernel>
     29c:	eb000137 	bl	780 <cache_clean_flush>
     2a0:	eb00010e 	bl	6e0 <cache_off>
     2a4:	e1a01007 	mov	r1, r7
     2a8:	e1a02008 	mov	r2, r8
     2ac:	e14f0000 	mrs	r0, SPSR
     2b0:	e200001f 	and	r0, r0, #31
     2b4:	e350001a 	cmp	r0, #26
     2b8:	1a0001a8 	bne	960 <__enter_kernel>
     2bc:	e28fc010 	add	ip, pc, #16
     2c0:	e59c0000 	ldr	r0, [ip]
     2c4:	e080000c 	add	r0, r0, ip
     2c8:	eb000d2a 	bl	3778 <__hyp_set_vectors>
     2cc:	e1400070 	.word	0xe1400070
     2d0:	eafffffe 	b	2d0 <not_relocated+0x70>
     2d4:	0000066c 	.word	0x0000066c

000002d8 <LC0>:
     2d8:	000002d8 002a3638 002a3660 002a3638     ....86*.`6*.86*.
     2e8:	002a35e9 002a35fc 002a3630 002a4660     .5*..5*.06*.`F*.
     2f8:	003a7598 e320f000                       .u:... .

00000300 <cache_on>:
     300:	e3a03008 	mov	r3, #8
     304:	ea000088 	b	52c <call_cache_fn>

00000308 <__armv4_mpu_cache_on>:
     308:	e3a0003f 	mov	r0, #63	; 0x3f
     30c:	ee060f17 	mcr	15, 0, r0, cr6, cr7, {0}
     310:	ee060f37 	mcr	15, 0, r0, cr6, cr7, {1}
     314:	e3a00080 	mov	r0, #128	; 0x80
     318:	ee020f10 	mcr	15, 0, r0, cr2, cr0, {0}
     31c:	ee020f30 	mcr	15, 0, r0, cr2, cr0, {1}
     320:	ee030f10 	mcr	15, 0, r0, cr3, cr0, {0}
     324:	e3a00903 	mov	r0, #49152	; 0xc000
     328:	ee050f30 	mcr	15, 0, r0, cr5, cr0, {1}
     32c:	ee050f10 	mcr	15, 0, r0, cr5, cr0, {0}
     330:	e3a00000 	mov	r0, #0
     334:	ee070f9a 	mcr	15, 0, r0, cr7, cr10, {4}
     338:	ee070f15 	mcr	15, 0, r0, cr7, cr5, {0}
     33c:	ee070f16 	mcr	15, 0, r0, cr7, cr6, {0}
     340:	ee110f10 	mrc	15, 0, r0, cr1, cr0, {0}
     344:	e380002d 	orr	r0, r0, #45	; 0x2d
     348:	e3800a01 	orr	r0, r0, #4096	; 0x1000
     34c:	ee010f10 	mcr	15, 0, r0, cr1, cr0, {0}
     350:	e3a00000 	mov	r0, #0
     354:	ee070f15 	mcr	15, 0, r0, cr7, cr5, {0}
     358:	ee070f16 	mcr	15, 0, r0, cr7, cr6, {0}
     35c:	e1a0f00e 	mov	pc, lr

00000360 <__armv3_mpu_cache_on>:
     360:	e3a0003f 	mov	r0, #63	; 0x3f
     364:	ee060f17 	mcr	15, 0, r0, cr6, cr7, {0}
     368:	e3a00080 	mov	r0, #128	; 0x80
     36c:	ee020f10 	mcr	15, 0, r0, cr2, cr0, {0}
     370:	ee030f10 	mcr	15, 0, r0, cr3, cr0, {0}
     374:	e3a00903 	mov	r0, #49152	; 0xc000
     378:	ee050f10 	mcr	15, 0, r0, cr5, cr0, {0}
     37c:	e3a00000 	mov	r0, #0
     380:	ee070f10 	mcr	15, 0, r0, cr7, cr0, {0}
     384:	ee110f10 	mrc	15, 0, r0, cr1, cr0, {0}
     388:	e380000d 	orr	r0, r0, #13
     38c:	e3a00000 	mov	r0, #0
     390:	ee010f10 	mcr	15, 0, r0, cr1, cr0, {0}
     394:	ee070f10 	mcr	15, 0, r0, cr7, cr0, {0}
     398:	e1a0f00e 	mov	pc, lr

0000039c <__setup_mmu>:
     39c:	e2443901 	sub	r3, r4, #16384	; 0x4000
     3a0:	e3c330ff 	bic	r3, r3, #255	; 0xff
     3a4:	e3c33c3f 	bic	r3, r3, #16128	; 0x3f00
     3a8:	e1a00003 	mov	r0, r3
     3ac:	e1a09920 	lsr	r9, r0, #18
     3b0:	e1a09909 	lsl	r9, r9, #18
     3b4:	e289a201 	add	sl, r9, #268435456	; 0x10000000
     3b8:	e3a01012 	mov	r1, #18
     3bc:	e3811b03 	orr	r1, r1, #3072	; 0xc00
     3c0:	e2832901 	add	r2, r3, #16384	; 0x4000
     3c4:	e1510009 	cmp	r1, r9
     3c8:	215a0001 	cmpcs	sl, r1
     3cc:	e3c1101c 	bic	r1, r1, #28
     3d0:	33811010 	orrcc	r1, r1, #16
     3d4:	21811006 	orrcs	r1, r1, r6
     3d8:	e4801004 	str	r1, [r0], #4
     3dc:	e2811601 	add	r1, r1, #1048576	; 0x100000
     3e0:	e1300002 	teq	r0, r2
     3e4:	1afffff6 	bne	3c4 <__setup_mmu+0x28>
     3e8:	e3861004 	orr	r1, r6, #4
     3ec:	e3811b03 	orr	r1, r1, #3072	; 0xc00
     3f0:	e1a0200f 	mov	r2, pc
     3f4:	e1a02a22 	lsr	r2, r2, #20
     3f8:	e1811a02 	orr	r1, r1, r2, lsl #20
     3fc:	e0830102 	add	r0, r3, r2, lsl #2
     400:	e4801004 	str	r1, [r0], #4
     404:	e2811601 	add	r1, r1, #1048576	; 0x100000
     408:	e5801000 	str	r1, [r0]
     40c:	e1a0f00e 	mov	pc, lr

00000410 <__armv6_mmu_cache_on>:
     410:	ee110f10 	mrc	15, 0, r0, cr1, cr0, {0}
     414:	e3c00002 	bic	r0, r0, #2
     418:	e3800501 	orr	r0, r0, #4194304	; 0x400000
     41c:	ee010f10 	mcr	15, 0, r0, cr1, cr0, {0}
     420:	eaffffff 	b	424 <__arm926ejs_mmu_cache_on>

00000424 <__arm926ejs_mmu_cache_on>:
     424:	e1a0c00e 	mov	ip, lr
     428:	e3a0601e 	mov	r6, #30
     42c:	ebffffda 	bl	39c <__setup_mmu>
     430:	e3a00000 	mov	r0, #0
     434:	ee070f9a 	mcr	15, 0, r0, cr7, cr10, {4}
     438:	ee080f17 	mcr	15, 0, r0, cr8, cr7, {0}
     43c:	ee110f10 	mrc	15, 0, r0, cr1, cr0, {0}
     440:	e3800a05 	orr	r0, r0, #20480	; 0x5000
     444:	e3800030 	orr	r0, r0, #48	; 0x30
     448:	eb00002c 	bl	500 <__common_mmu_cache_on>
     44c:	e3a00000 	mov	r0, #0
     450:	ee080f17 	mcr	15, 0, r0, cr8, cr7, {0}
     454:	e1a0f00c 	mov	pc, ip

00000458 <__armv7_mmu_cache_on>:
     458:	e1a0c00e 	mov	ip, lr
     45c:	ee10bf91 	mrc	15, 0, fp, cr0, cr1, {4}
     460:	e31b000f 	tst	fp, #15
     464:	13a0600e 	movne	r6, #14
     468:	1bffffcb 	blne	39c <__setup_mmu>
     46c:	e3a00000 	mov	r0, #0
     470:	ee070f9a 	mcr	15, 0, r0, cr7, cr10, {4}
     474:	e31b000f 	tst	fp, #15
     478:	1e080f17 	mcrne	15, 0, r0, cr8, cr7, {0}
     47c:	ee110f10 	mrc	15, 0, r0, cr1, cr0, {0}
     480:	e3c00201 	bic	r0, r0, #268435456	; 0x10000000
     484:	e3800a05 	orr	r0, r0, #20480	; 0x5000
     488:	e380003c 	orr	r0, r0, #60	; 0x3c
     48c:	e3c00002 	bic	r0, r0, #2
     490:	e3800501 	orr	r0, r0, #4194304	; 0x400000
     494:	1e126f50 	mrcne	15, 0, r6, cr2, cr0, {2}
     498:	13800001 	orrne	r0, r0, #1
     49c:	13e01002 	mvnne	r1, #2
     4a0:	e3c66102 	bic	r6, r6, #-2147483648	; 0x80000000
     4a4:	e3c66003 	bic	r6, r6, #3
     4a8:	1e023f10 	mcrne	15, 0, r3, cr2, cr0, {0}
     4ac:	1e031f10 	mcrne	15, 0, r1, cr3, cr0, {0}
     4b0:	1e026f50 	mcrne	15, 0, r6, cr2, cr0, {2}
     4b4:	ee070f95 	mcr	15, 0, r0, cr7, cr5, {4}
     4b8:	ee010f10 	mcr	15, 0, r0, cr1, cr0, {0}
     4bc:	ee110f10 	mrc	15, 0, r0, cr1, cr0, {0}
     4c0:	e3a00000 	mov	r0, #0
     4c4:	ee070f95 	mcr	15, 0, r0, cr7, cr5, {4}
     4c8:	e1a0f00c 	mov	pc, ip

000004cc <__fa526_cache_on>:
     4cc:	e1a0c00e 	mov	ip, lr
     4d0:	e3a0601e 	mov	r6, #30
     4d4:	ebffffb0 	bl	39c <__setup_mmu>
     4d8:	e3a00000 	mov	r0, #0
     4dc:	ee070f17 	mcr	15, 0, r0, cr7, cr7, {0}
     4e0:	ee070f9a 	mcr	15, 0, r0, cr7, cr10, {4}
     4e4:	ee080f17 	mcr	15, 0, r0, cr8, cr7, {0}
     4e8:	ee110f10 	mrc	15, 0, r0, cr1, cr0, {0}
     4ec:	e3800a01 	orr	r0, r0, #4096	; 0x1000
     4f0:	eb000002 	bl	500 <__common_mmu_cache_on>
     4f4:	e3a00000 	mov	r0, #0
     4f8:	ee080f17 	mcr	15, 0, r0, cr8, cr7, {0}
     4fc:	e1a0f00c 	mov	pc, ip

00000500 <__common_mmu_cache_on>:
     500:	e380000d 	orr	r0, r0, #13
     504:	e3e01000 	mvn	r1, #0
     508:	ee023f10 	mcr	15, 0, r3, cr2, cr0, {0}
     50c:	ee031f10 	mcr	15, 0, r1, cr3, cr0, {0}
     510:	ea000002 	b	520 <__common_mmu_cache_on+0x20>
     514:	e320f000 	nop	{0}
     518:	e320f000 	nop	{0}
     51c:	e320f000 	nop	{0}
     520:	ee010f10 	mcr	15, 0, r0, cr1, cr0, {0}
     524:	ee110f10 	mrc	15, 0, r0, cr1, cr0, {0}
     528:	e04ef020 	sub	pc, lr, r0, lsr #32

0000052c <call_cache_fn>:
     52c:	e28fc01c 	add	ip, pc, #28
     530:	ee109f10 	mrc	15, 0, r9, cr0, cr0, {0}
     534:	e59c1000 	ldr	r1, [ip]
     538:	e59c2004 	ldr	r2, [ip, #4]
     53c:	e0211009 	eor	r1, r1, r9
     540:	e1110002 	tst	r1, r2
     544:	008cf003 	addeq	pc, ip, r3
     548:	e28cc014 	add	ip, ip, #20
     54c:	eafffff8 	b	534 <call_cache_fn+0x8>

00000550 <proc_types>:
     550:	41000000 ff00f000 e1a0f00e e1a0f00e     ...A............
     560:	e1a0f00e 41007000 fff8fe00 e1a0f00e     .....p.A........
     570:	e1a0f00e e1a0f00e 41807200 ffffff00     .........r.A....
     580:	eaffffa7 ea000065 e1a0f00e 41007400     ....e........t.A
     590:	ff00ff00 eaffff71 ea00005a ea0000df     ....q...Z.......
     5a0:	41009400 ff00ff00 eaffff56 ea00004d     ...A....V...M...
     5b0:	ea000074 41069260 ff0ffff0 eaffff98     t...`..A........
     5c0:	ea000056 ea0000b7 00007000 0000f000     V........p......
     5d0:	e1a0f00e e1a0f00e e1a0f00e 4401a100     ...............D
     5e0:	ffffffe0 eaffff8e ea00004c ea0000b2     ........L.......
     5f0:	6901b110 fffffff0 eaffff89 ea000047     ...i........G...
     600:	ea0000ad 56056900 ffffff00 eaffff84     .....i.V........
     610:	ea000042 ea0000a8 56158000 fffff000     B..........V....
     620:	eaffff7f ea00003d ea00009e 56050000     ....=..........V
     630:	ff0f0000 eaffff7a ea000038 ea000099     ....z...8.......
     640:	66015261 ff01fff1 eaffff9f ea000033     aR.f........3...
     650:	ea00005a 00020000 000f0000 eaffff70     Z...........p...
     660:	ea00002e ea000094 00050000 000f0000     ................
     670:	eaffff6b ea000029 ea00008f 00060000     k...)...........
     680:	000f0000 eaffff66 ea000024 ea000085     ....f...$.......
     690:	0007b000 000ff000 eaffff5c ea00001f     ........\.......
     6a0:	ea00004b 000f0000 000f0000 eaffff69     K...........i...
     6b0:	ea000021 ea00004c 00000000 00000000     !...L...........
     6c0:	e1a0f00e e1a0f00e e1a0f00e e320f000     .............. .
     6d0:	e320f000 e320f000 e320f000 e320f000     .. ... ... ... .

000006e0 <cache_off>:
     6e0:	e3a0300c 	mov	r3, #12
     6e4:	eaffff90 	b	52c <call_cache_fn>

000006e8 <__armv4_mpu_cache_off>:
     6e8:	ee110f10 	mrc	15, 0, r0, cr1, cr0, {0}
     6ec:	e3c0000d 	bic	r0, r0, #13
     6f0:	ee010f10 	mcr	15, 0, r0, cr1, cr0, {0}
     6f4:	e3a00000 	mov	r0, #0
     6f8:	ee070f9a 	mcr	15, 0, r0, cr7, cr10, {4}
     6fc:	ee070f16 	mcr	15, 0, r0, cr7, cr6, {0}
     700:	ee070f15 	mcr	15, 0, r0, cr7, cr5, {0}
     704:	e1a0f00e 	mov	pc, lr

00000708 <__armv3_mpu_cache_off>:
     708:	ee110f10 	mrc	15, 0, r0, cr1, cr0, {0}
     70c:	e3c0000d 	bic	r0, r0, #13
     710:	ee010f10 	mcr	15, 0, r0, cr1, cr0, {0}
     714:	e3a00000 	mov	r0, #0
     718:	ee070f10 	mcr	15, 0, r0, cr7, cr0, {0}
     71c:	e1a0f00e 	mov	pc, lr

00000720 <__armv4_mmu_cache_off>:
     720:	ee110f10 	mrc	15, 0, r0, cr1, cr0, {0}
     724:	e3c0000d 	bic	r0, r0, #13
     728:	ee010f10 	mcr	15, 0, r0, cr1, cr0, {0}
     72c:	e3a00000 	mov	r0, #0
     730:	ee070f17 	mcr	15, 0, r0, cr7, cr7, {0}
     734:	ee080f17 	mcr	15, 0, r0, cr8, cr7, {0}
     738:	e1a0f00e 	mov	pc, lr

0000073c <__armv7_mmu_cache_off>:
     73c:	ee110f10 	mrc	15, 0, r0, cr1, cr0, {0}
     740:	e3c0000d 	bic	r0, r0, #13
     744:	ee010f10 	mcr	15, 0, r0, cr1, cr0, {0}
     748:	e1a0c00e 	mov	ip, lr
     74c:	eb000026 	bl	7ec <__armv7_mmu_cache_flush>
     750:	e3a00000 	mov	r0, #0
     754:	ee080f17 	mcr	15, 0, r0, cr8, cr7, {0}
     758:	ee070fd5 	mcr	15, 0, r0, cr7, cr5, {6}
     75c:	ee070f9a 	mcr	15, 0, r0, cr7, cr10, {4}
     760:	ee070f95 	mcr	15, 0, r0, cr7, cr5, {4}
     764:	e1a0f00c 	mov	pc, ip
     768:	e320f000 	nop	{0}
     76c:	e320f000 	nop	{0}
     770:	e320f000 	nop	{0}
     774:	e320f000 	nop	{0}
     778:	e320f000 	nop	{0}
     77c:	e320f000 	nop	{0}

00000780 <cache_clean_flush>:
     780:	e3a03010 	mov	r3, #16
     784:	eaffff68 	b	52c <call_cache_fn>

00000788 <__armv4_mpu_cache_flush>:
     788:	e3a02001 	mov	r2, #1
     78c:	e3a03000 	mov	r3, #0
     790:	ee07cf16 	mcr	15, 0, ip, cr7, cr6, {0}
     794:	e3a010e0 	mov	r1, #224	; 0xe0
     798:	e381333f 	orr	r3, r1, #-67108864	; 0xfc000000
     79c:	ee073f5e 	mcr	15, 0, r3, cr7, cr14, {2}
     7a0:	e2533301 	subs	r3, r3, #67108864	; 0x4000000
     7a4:	2afffffc 	bcs	79c <__armv4_mpu_cache_flush+0x14>
     7a8:	e2511020 	subs	r1, r1, #32
     7ac:	2afffff9 	bcs	798 <__armv4_mpu_cache_flush+0x10>
     7b0:	e3320000 	teq	r2, #0
     7b4:	1e07cf15 	mcrne	15, 0, ip, cr7, cr5, {0}
     7b8:	ee07cf9a 	mcr	15, 0, ip, cr7, cr10, {4}
     7bc:	e1a0f00e 	mov	pc, lr

000007c0 <__fa526_cache_flush>:
     7c0:	e3a01000 	mov	r1, #0
     7c4:	ee071f1e 	mcr	15, 0, r1, cr7, cr14, {0}
     7c8:	ee071f15 	mcr	15, 0, r1, cr7, cr5, {0}
     7cc:	ee071f9a 	mcr	15, 0, r1, cr7, cr10, {4}
     7d0:	e1a0f00e 	mov	pc, lr

000007d4 <__armv6_mmu_cache_flush>:
     7d4:	e3a01000 	mov	r1, #0
     7d8:	ee071f1e 	mcr	15, 0, r1, cr7, cr14, {0}
     7dc:	ee071f15 	mcr	15, 0, r1, cr7, cr5, {0}
     7e0:	ee071f1f 	mcr	15, 0, r1, cr7, cr15, {0}
     7e4:	ee071f9a 	mcr	15, 0, r1, cr7, cr10, {4}
     7e8:	e1a0f00e 	mov	pc, lr

000007ec <__armv7_mmu_cache_flush>:
     7ec:	ee10afb1 	mrc	15, 0, sl, cr0, cr1, {5}
     7f0:	e31a080f 	tst	sl, #983040	; 0xf0000
     7f4:	e3a0a000 	mov	sl, #0
     7f8:	0a000001 	beq	804 <hierarchical>
     7fc:	ee07af1e 	mcr	15, 0, sl, cr7, cr14, {0}
     800:	ea000023 	b	894 <iflush>

00000804 <hierarchical>:
     804:	ee07afba 	mcr	15, 0, sl, cr7, cr10, {5}
     808:	e92d0eff 	push	{r0, r1, r2, r3, r4, r5, r6, r7, r9, sl, fp}
     80c:	ee300f30 	mrc	15, 1, r0, cr0, cr0, {1}
     810:	e2103407 	ands	r3, r0, #117440512	; 0x7000000
     814:	e1a03ba3 	lsr	r3, r3, #23
     818:	0a00001a 	beq	888 <finished>
     81c:	e3a0a000 	mov	sl, #0

00000820 <loop1>:
     820:	e08a20aa 	add	r2, sl, sl, lsr #1
     824:	e1a01230 	lsr	r1, r0, r2
     828:	e2011007 	and	r1, r1, #7
     82c:	e3510002 	cmp	r1, #2
     830:	ba000011 	blt	87c <skip>
     834:	ee40af10 	mcr	15, 2, sl, cr0, cr0, {0}
     838:	ee07af95 	mcr	15, 0, sl, cr7, cr5, {4}
     83c:	ee301f10 	mrc	15, 1, r1, cr0, cr0, {0}
     840:	e2012007 	and	r2, r1, #7
     844:	e2822004 	add	r2, r2, #4
     848:	e59f40e4 	ldr	r4, [pc, #228]	; 934 <__armv3_mmu_cache_flush+0x14>
     84c:	e01441a1 	ands	r4, r4, r1, lsr #3
     850:	e16f5f14 	clz	r5, r4
     854:	e59f70dc 	ldr	r7, [pc, #220]	; 938 <__armv3_mmu_cache_flush+0x18>
     858:	e01776a1 	ands	r7, r7, r1, lsr #13

0000085c <loop2>:
     85c:	e1a09004 	mov	r9, r4

00000860 <loop3>:
     860:	e18ab519 	orr	fp, sl, r9, lsl r5
     864:	e18bb217 	orr	fp, fp, r7, lsl r2
     868:	ee07bf5e 	mcr	15, 0, fp, cr7, cr14, {2}
     86c:	e2599001 	subs	r9, r9, #1
     870:	aafffffa 	bge	860 <loop3>
     874:	e2577001 	subs	r7, r7, #1
     878:	aafffff7 	bge	85c <loop2>

0000087c <skip>:
     87c:	e28aa002 	add	sl, sl, #2
     880:	e153000a 	cmp	r3, sl
     884:	caffffe5 	bgt	820 <loop1>

00000888 <finished>:
     888:	e8bd0eff 	pop	{r0, r1, r2, r3, r4, r5, r6, r7, r9, sl, fp}
     88c:	e3a0a000 	mov	sl, #0
     890:	ee40af10 	mcr	15, 2, sl, cr0, cr0, {0}

00000894 <iflush>:
     894:	ee07af9a 	mcr	15, 0, sl, cr7, cr10, {4}
     898:	ee07af15 	mcr	15, 0, sl, cr7, cr5, {0}
     89c:	ee07af9a 	mcr	15, 0, sl, cr7, cr10, {4}
     8a0:	ee07af95 	mcr	15, 0, sl, cr7, cr5, {4}
     8a4:	e1a0f00e 	mov	pc, lr

000008a8 <__armv5tej_mmu_cache_flush>:
     8a8:	ee17ff7e 	mrc	15, 0, APSR_nzcv, cr7, cr14, {3}
     8ac:	1afffffd 	bne	8a8 <__armv5tej_mmu_cache_flush>
     8b0:	ee070f15 	mcr	15, 0, r0, cr7, cr5, {0}
     8b4:	ee070f9a 	mcr	15, 0, r0, cr7, cr10, {4}
     8b8:	e1a0f00e 	mov	pc, lr

000008bc <__armv4_mmu_cache_flush>:
     8bc:	e3a02801 	mov	r2, #65536	; 0x10000
     8c0:	e3a0b020 	mov	fp, #32
     8c4:	ee103f30 	mrc	15, 0, r3, cr0, cr0, {1}
     8c8:	e1330009 	teq	r3, r9
     8cc:	0a000009 	beq	8f8 <no_cache_id>
     8d0:	e1a01923 	lsr	r1, r3, #18
     8d4:	e2011007 	and	r1, r1, #7
     8d8:	e3a02b01 	mov	r2, #1024	; 0x400
     8dc:	e1a02112 	lsl	r2, r2, r1
     8e0:	e3130901 	tst	r3, #16384	; 0x4000
     8e4:	108220a2 	addne	r2, r2, r2, lsr #1
     8e8:	e1a03623 	lsr	r3, r3, #12
     8ec:	e2033003 	and	r3, r3, #3
     8f0:	e3a0b008 	mov	fp, #8
     8f4:	e1a0b31b 	lsl	fp, fp, r3

000008f8 <no_cache_id>:
     8f8:	e1a0100f 	mov	r1, pc
     8fc:	e3c1103f 	bic	r1, r1, #63	; 0x3f
     900:	e0812002 	add	r2, r1, r2
     904:	e691300b 	ldr	r3, [r1], fp
     908:	e1310002 	teq	r1, r2
     90c:	1afffffc 	bne	904 <no_cache_id+0xc>
     910:	ee071f15 	mcr	15, 0, r1, cr7, cr5, {0}
     914:	ee071f16 	mcr	15, 0, r1, cr7, cr6, {0}
     918:	ee071f9a 	mcr	15, 0, r1, cr7, cr10, {4}
     91c:	e1a0f00e 	mov	pc, lr

00000920 <__armv3_mmu_cache_flush>:
     920:	e3a01000 	mov	r1, #0
     924:	ee071f10 	mcr	15, 0, r1, cr7, cr0, {0}
     928:	e1a0f00e 	mov	pc, lr
     92c:	edfe0dd0 	.word	0xedfe0dd0
     930:	00042734 	.word	0x00042734
     934:	000003ff 	.word	0x000003ff
     938:	00007fff 	.word	0x00007fff
     93c:	e320f000 	nop	{0}

00000940 <__hyp_reentry_vectors>:
     940:	eafffffe 	b	940 <__hyp_reentry_vectors>
     944:	eafffffe 	b	944 <__hyp_reentry_vectors+0x4>
     948:	eafffffe 	b	948 <__hyp_reentry_vectors+0x8>
     94c:	eafffffe 	b	94c <__hyp_reentry_vectors+0xc>
     950:	eafffffe 	b	950 <__hyp_reentry_vectors+0x10>
     954:	ea000001 	b	960 <__enter_kernel>
     958:	eafffffe 	b	958 <__hyp_reentry_vectors+0x18>
     95c:	eafffffe 	b	95c <__hyp_reentry_vectors+0x1c>

00000960 <__enter_kernel>:
     960:	e3a00000 	mov	r0, #0
     964:	e1a0f004 	mov	pc, r4

00000968 <reloc_code_end>:
     968:	e320f000 	nop	{0}
     96c:	e320f000 	nop	{0}
     970:	e320f000 	nop	{0}
     974:	e320f000 	nop	{0}
     978:	e320f000 	nop	{0}
     97c:	e320f000 	nop	{0}

00000980 <error>:
     980:	e59f3038 	ldr	r3, [pc, #56]	; 9c0 <error+0x40>
     984:	e08f3003 	add	r3, pc, r3
     988:	e2433001 	sub	r3, r3, #1
     98c:	e5f32001 	ldrb	r2, [r3, #1]!
     990:	e3520000 	cmp	r2, #0
     994:	1afffffc 	bne	98c <error+0xc>
     998:	e4d03001 	ldrb	r3, [r0], #1
     99c:	e3530000 	cmp	r3, #0
     9a0:	1afffffc 	bne	998 <error+0x18>
     9a4:	e59f3018 	ldr	r3, [pc, #24]	; 9c4 <error+0x44>
     9a8:	e08f3003 	add	r3, pc, r3
     9ac:	e2433001 	sub	r3, r3, #1
     9b0:	e5f32001 	ldrb	r2, [r3, #1]!
     9b4:	e3520000 	cmp	r2, #0
     9b8:	1afffffc 	bne	9b0 <error+0x30>
     9bc:	eafffffe 	b	9bc <error+0x3c>
     9c0:	000059ec 	.word	0x000059ec
     9c4:	000059cc 	.word	0x000059cc

000009c8 <__div0>:
     9c8:	e59f0004 	ldr	r0, [pc, #4]	; 9d4 <__div0+0xc>
     9cc:	e08f0000 	add	r0, pc, r0
     9d0:	eaffffea 	b	980 <error>
     9d4:	000059bc 	.word	0x000059bc

000009d8 <__stack_chk_guard_setup>:
     9d8:	e59f2018 	ldr	r2, [pc, #24]	; 9f8 <__stack_chk_guard_setup+0x20>
     9dc:	e3003dff 	movw	r3, #3583	; 0xdff
     9e0:	e59f1014 	ldr	r1, [pc, #20]	; 9fc <__stack_chk_guard_setup+0x24>
     9e4:	e340300a 	movt	r3, #10
     9e8:	e08f2002 	add	r2, pc, r2
     9ec:	e7922001 	ldr	r2, [r2, r1]
     9f0:	e5823000 	str	r3, [r2]
     9f4:	e12fff1e 	bx	lr
     9f8:	002a2c0c 	.word	0x002a2c0c
     9fc:	00000004 	.word	0x00000004

00000a00 <__stack_chk_fail>:
     a00:	e59f0004 	ldr	r0, [pc, #4]	; a0c <__stack_chk_fail+0xc>
     a04:	e08f0000 	add	r0, pc, r0
     a08:	eaffffdc 	b	980 <error>
     a0c:	000059a0 	.word	0x000059a0

00000a10 <decompress_kernel>:
     a10:	e92d41f0 	push	{r4, r5, r6, r7, r8, lr}
     a14:	e1a05000 	mov	r5, r0
     a18:	e59f411c 	ldr	r4, [pc, #284]	; b3c <decompress_kernel+0x12c>
     a1c:	e1a06001 	mov	r6, r1
     a20:	e1a07002 	mov	r7, r2
     a24:	e1a08003 	mov	r8, r3
     a28:	ebffffea 	bl	9d8 <__stack_chk_guard_setup>
     a2c:	e59f210c 	ldr	r2, [pc, #268]	; b40 <decompress_kernel+0x130>
     a30:	e08f4004 	add	r4, pc, r4
     a34:	e59f0108 	ldr	r0, [pc, #264]	; b44 <decompress_kernel+0x134>
     a38:	e59f1108 	ldr	r1, [pc, #264]	; b48 <decompress_kernel+0x138>
     a3c:	e3a03201 	mov	r3, #268435456	; 0x10000000
     a40:	e794c002 	ldr	ip, [r4, r2]
     a44:	e59f2100 	ldr	r2, [pc, #256]	; b4c <decompress_kernel+0x13c>
     a48:	e58c5000 	str	r5, [ip]
     a4c:	e7940000 	ldr	r0, [r4, r0]
     a50:	e5806000 	str	r6, [r0]
     a54:	e7941001 	ldr	r1, [r4, r1]
     a58:	e5817000 	str	r7, [r1]
     a5c:	e7942002 	ldr	r2, [r4, r2]
     a60:	e5828000 	str	r8, [r2]
     a64:	e5933000 	ldr	r3, [r3]
     a68:	e1a03a23 	lsr	r3, r3, #20
     a6c:	e203200f 	and	r2, r3, #15
     a70:	e3520005 	cmp	r2, #5
     a74:	e59f20d4 	ldr	r2, [pc, #212]	; b50 <decompress_kernel+0x140>
     a78:	0a000026 	beq	b18 <decompress_kernel+0x108>
     a7c:	e20330f0 	and	r3, r3, #240	; 0xf0
     a80:	e3530050 	cmp	r3, #80	; 0x50
     a84:	0a000023 	beq	b18 <decompress_kernel+0x108>
     a88:	e7942002 	ldr	r2, [r4, r2]
     a8c:	e3a03000 	mov	r3, #0
     a90:	e3413383 	movt	r3, #4995	; 0x1383
     a94:	e5823000 	str	r3, [r2]
     a98:	e59f00b4 	ldr	r0, [pc, #180]	; b54 <decompress_kernel+0x144>
     a9c:	e3a0c8ff 	mov	ip, #16711680	; 0xff0000
     aa0:	e59f20b0 	ldr	r2, [pc, #176]	; b58 <decompress_kernel+0x148>
     aa4:	e3a0180f 	mov	r1, #983040	; 0xf0000
     aa8:	e59f30ac 	ldr	r3, [pc, #172]	; b5c <decompress_kernel+0x14c>
     aac:	e7940000 	ldr	r0, [r4, r0]
     ab0:	e08f3003 	add	r3, pc, r3
     ab4:	e2433001 	sub	r3, r3, #1
     ab8:	e580c000 	str	ip, [r0]
     abc:	e7942002 	ldr	r2, [r4, r2]
     ac0:	e5821000 	str	r1, [r2]
     ac4:	e5f31001 	ldrb	r1, [r3, #1]!
     ac8:	e3510000 	cmp	r1, #0
     acc:	1afffffc 	bne	ac4 <decompress_kernel+0xb4>
     ad0:	e59f0088 	ldr	r0, [pc, #136]	; b60 <decompress_kernel+0x150>
     ad4:	e1a02005 	mov	r2, r5
     ad8:	e59f1084 	ldr	r1, [pc, #132]	; b64 <decompress_kernel+0x154>
     adc:	e59f3084 	ldr	r3, [pc, #132]	; b68 <decompress_kernel+0x158>
     ae0:	e7940000 	ldr	r0, [r4, r0]
     ae4:	e7941001 	ldr	r1, [r4, r1]
     ae8:	e7943003 	ldr	r3, [r4, r3]
     aec:	e0601001 	rsb	r1, r0, r1
     af0:	eb0009bc 	bl	31e8 <do_decompress>
     af4:	e59f3070 	ldr	r3, [pc, #112]	; b6c <decompress_kernel+0x15c>
     af8:	e08f3003 	add	r3, pc, r3
     afc:	e2433001 	sub	r3, r3, #1
     b00:	e3500000 	cmp	r0, #0
     b04:	1a000008 	bne	b2c <decompress_kernel+0x11c>
     b08:	e5f32001 	ldrb	r2, [r3, #1]!
     b0c:	e3520000 	cmp	r2, #0
     b10:	1afffffc 	bne	b08 <decompress_kernel+0xf8>
     b14:	e8bd81f0 	pop	{r4, r5, r6, r7, r8, pc}
     b18:	e7942002 	ldr	r2, [r4, r2]
     b1c:	e3a03000 	mov	r3, #0
     b20:	e34132c3 	movt	r3, #4803	; 0x12c3
     b24:	e5823000 	str	r3, [r2]
     b28:	eaffffda 	b	a98 <decompress_kernel+0x88>
     b2c:	e59f003c 	ldr	r0, [pc, #60]	; b70 <decompress_kernel+0x160>
     b30:	e8bd41f0 	pop	{r4, r5, r6, r7, r8, lr}
     b34:	e08f0000 	add	r0, pc, r0
     b38:	eaffff90 	b	980 <error>
     b3c:	002a2bc4 	.word	0x002a2bc4
     b40:	00000024 	.word	0x00000024
     b44:	00000030 	.word	0x00000030
     b48:	0000001c 	.word	0x0000001c
     b4c:	00000028 	.word	0x00000028
     b50:	00000000 	.word	0x00000000
     b54:	00000014 	.word	0x00000014
     b58:	0000002c 	.word	0x0000002c
     b5c:	00005920 	.word	0x00005920
     b60:	00000010 	.word	0x00000010
     b64:	00000008 	.word	0x00000008
     b68:	00000020 	.word	0x00000020
     b6c:	00005910 	.word	0x00005910
     b70:	000058b4 	.word	0x000058b4

00000b74 <malloc>:
     b74:	e2501000 	subs	r1, r0, #0
     b78:	e59f3074 	ldr	r3, [pc, #116]	; bf4 <malloc+0x80>
     b7c:	e52d4004 	push	{r4}		; (str r4, [sp, #-4]!)
     b80:	e08f3003 	add	r3, pc, r3
     b84:	ba000018 	blt	bec <malloc+0x78>
     b88:	e59f2068 	ldr	r2, [pc, #104]	; bf8 <malloc+0x84>
     b8c:	e7932002 	ldr	r2, [r3, r2]
     b90:	e592c000 	ldr	ip, [r2]
     b94:	e35c0000 	cmp	ip, #0
     b98:	059f005c 	ldreq	r0, [pc, #92]	; bfc <malloc+0x88>
     b9c:	07930000 	ldreq	r0, [r3, r0]
     ba0:	0590c000 	ldreq	ip, [r0]
     ba4:	e59f4054 	ldr	r4, [pc, #84]	; c00 <malloc+0x8c>
     ba8:	e28c0003 	add	r0, ip, #3
     bac:	e3c00003 	bic	r0, r0, #3
     bb0:	e0801001 	add	r1, r0, r1
     bb4:	e5821000 	str	r1, [r2]
     bb8:	e7932004 	ldr	r2, [r3, r4]
     bbc:	e5922000 	ldr	r2, [r2]
     bc0:	e3520000 	cmp	r2, #0
     bc4:	1a000006 	bne	be4 <malloc+0x70>
     bc8:	e59f2034 	ldr	r2, [pc, #52]	; c04 <malloc+0x90>
     bcc:	e7933002 	ldr	r3, [r3, r2]
     bd0:	e5932000 	ldr	r2, [r3]
     bd4:	e2822001 	add	r2, r2, #1
     bd8:	e5832000 	str	r2, [r3]
     bdc:	e49d4004 	pop	{r4}		; (ldr r4, [sp], #4)
     be0:	e12fff1e 	bx	lr
     be4:	e1510002 	cmp	r1, r2
     be8:	3afffff6 	bcc	bc8 <malloc+0x54>
     bec:	e3a00000 	mov	r0, #0
     bf0:	eafffff9 	b	bdc <malloc+0x68>
     bf4:	002a2a74 	.word	0x002a2a74
     bf8:	0000000c 	.word	0x0000000c
     bfc:	00000030 	.word	0x00000030
     c00:	0000001c 	.word	0x0000001c
     c04:	00000018 	.word	0x00000018

00000c08 <nofill>:
     c08:	e3e00000 	mvn	r0, #0
     c0c:	e12fff1e 	bx	lr

00000c10 <zlib_updatewindow>:
     c10:	e92d40f8 	push	{r3, r4, r5, r6, r7, lr}
     c14:	e1a07000 	mov	r7, r0
     c18:	e590401c 	ldr	r4, [r0, #28]
     c1c:	e5905010 	ldr	r5, [r0, #16]
     c20:	e5946024 	ldr	r6, [r4, #36]	; 0x24
     c24:	e0655001 	rsb	r5, r5, r1
     c28:	e1550006 	cmp	r5, r6
     c2c:	2a000016 	bcs	c8c <zlib_updatewindow+0x7c>
     c30:	e594302c 	ldr	r3, [r4, #44]	; 0x2c
     c34:	e5940030 	ldr	r0, [r4, #48]	; 0x30
     c38:	e0636006 	rsb	r6, r3, r6
     c3c:	e597100c 	ldr	r1, [r7, #12]
     c40:	e1550006 	cmp	r5, r6
     c44:	31a06005 	movcc	r6, r5
     c48:	e0800003 	add	r0, r0, r3
     c4c:	e0651001 	rsb	r1, r5, r1
     c50:	e1a02006 	mov	r2, r6
     c54:	eb000a27 	bl	34f8 <memcpy>
     c58:	e0555006 	subs	r5, r5, r6
     c5c:	1a000014 	bne	cb4 <zlib_updatewindow+0xa4>
     c60:	e594102c 	ldr	r1, [r4, #44]	; 0x2c
     c64:	e5942028 	ldr	r2, [r4, #40]	; 0x28
     c68:	e5943024 	ldr	r3, [r4, #36]	; 0x24
     c6c:	e0861001 	add	r1, r6, r1
     c70:	e584102c 	str	r1, [r4, #44]	; 0x2c
     c74:	e1510003 	cmp	r1, r3
     c78:	0584502c 	streq	r5, [r4, #44]	; 0x2c
     c7c:	e1530002 	cmp	r3, r2
     c80:	80866002 	addhi	r6, r6, r2
     c84:	85846028 	strhi	r6, [r4, #40]	; 0x28
     c88:	e8bd80f8 	pop	{r3, r4, r5, r6, r7, pc}
     c8c:	e590100c 	ldr	r1, [r0, #12]
     c90:	e1a02006 	mov	r2, r6
     c94:	e5940030 	ldr	r0, [r4, #48]	; 0x30
     c98:	e0661001 	rsb	r1, r6, r1
     c9c:	eb000a15 	bl	34f8 <memcpy>
     ca0:	e5943024 	ldr	r3, [r4, #36]	; 0x24
     ca4:	e3a02000 	mov	r2, #0
     ca8:	e584202c 	str	r2, [r4, #44]	; 0x2c
     cac:	e5843028 	str	r3, [r4, #40]	; 0x28
     cb0:	e8bd80f8 	pop	{r3, r4, r5, r6, r7, pc}
     cb4:	e597100c 	ldr	r1, [r7, #12]
     cb8:	e1a02005 	mov	r2, r5
     cbc:	e5940030 	ldr	r0, [r4, #48]	; 0x30
     cc0:	e0651001 	rsb	r1, r5, r1
     cc4:	eb000a0b 	bl	34f8 <memcpy>
     cc8:	e5943024 	ldr	r3, [r4, #36]	; 0x24
     ccc:	e584502c 	str	r5, [r4, #44]	; 0x2c
     cd0:	e5843028 	str	r3, [r4, #40]	; 0x28
     cd4:	e8bd80f8 	pop	{r3, r4, r5, r6, r7, pc}

00000cd8 <zlib_inflate_table>:
     cd8:	e92d0ff0 	push	{r4, r5, r6, r7, r8, r9, sl, fp}
     cdc:	e24dd078 	sub	sp, sp, #120	; 0x78
     ce0:	e28d4038 	add	r4, sp, #56	; 0x38
     ce4:	e28d5036 	add	r5, sp, #54	; 0x36
     ce8:	e59dc09c 	ldr	ip, [sp, #156]	; 0x9c
     cec:	e58d4024 	str	r4, [sp, #36]	; 0x24
     cf0:	e28d4056 	add	r4, sp, #86	; 0x56
     cf4:	e58d300c 	str	r3, [sp, #12]
     cf8:	e3a03000 	mov	r3, #0
     cfc:	e58d101c 	str	r1, [sp, #28]
     d00:	e1e530b2 	strh	r3, [r5, #2]!
     d04:	e1550004 	cmp	r5, r4
     d08:	1afffffc 	bne	d00 <zlib_inflate_table+0x28>
     d0c:	e3520000 	cmp	r2, #0
     d10:	0a00000a 	beq	d40 <zlib_inflate_table+0x68>
     d14:	e59d701c 	ldr	r7, [sp, #28]
     d18:	e0876082 	add	r6, r7, r2, lsl #1
     d1c:	e1a03007 	mov	r3, r7
     d20:	e0d310b2 	ldrh	r1, [r3], #2
     d24:	e28d5078 	add	r5, sp, #120	; 0x78
     d28:	e1530006 	cmp	r3, r6
     d2c:	e0851081 	add	r1, r5, r1, lsl #1
     d30:	e15154b0 	ldrh	r5, [r1, #-64]	; 0xffffffc0
     d34:	e2855001 	add	r5, r5, #1
     d38:	e14154b0 	strh	r5, [r1, #-64]	; 0xffffffc0
     d3c:	1afffff7 	bne	d20 <zlib_inflate_table+0x48>
     d40:	e59d6098 	ldr	r6, [sp, #152]	; 0x98
     d44:	e28d3058 	add	r3, sp, #88	; 0x58
     d48:	e3a0800f 	mov	r8, #15
     d4c:	e5965000 	ldr	r5, [r6]
     d50:	e17310b2 	ldrh	r1, [r3, #-2]!
     d54:	e3510000 	cmp	r1, #0
     d58:	1a000017 	bne	dbc <zlib_inflate_table+0xe4>
     d5c:	e2588001 	subs	r8, r8, #1
     d60:	1afffffa 	bne	d50 <zlib_inflate_table+0x78>
     d64:	e59d600c 	ldr	r6, [sp, #12]
     d68:	e3a02001 	mov	r2, #1
     d6c:	e3a01000 	mov	r1, #0
     d70:	e3a0c040 	mov	ip, #64	; 0x40
     d74:	e59d7098 	ldr	r7, [sp, #152]	; 0x98
     d78:	e5963000 	ldr	r3, [r6]
     d7c:	e2830004 	add	r0, r3, #4
     d80:	e5860000 	str	r0, [r6]
     d84:	e5c3c000 	strb	ip, [r3]
     d88:	e1a00001 	mov	r0, r1
     d8c:	e5c32001 	strb	r2, [r3, #1]
     d90:	e1c310b2 	strh	r1, [r3, #2]
     d94:	e5963000 	ldr	r3, [r6]
     d98:	e2834004 	add	r4, r3, #4
     d9c:	e5864000 	str	r4, [r6]
     da0:	e5c3c000 	strb	ip, [r3]
     da4:	e5c32001 	strb	r2, [r3, #1]
     da8:	e1c310b2 	strh	r1, [r3, #2]
     dac:	e5872000 	str	r2, [r7]
     db0:	e28dd078 	add	sp, sp, #120	; 0x78
     db4:	e8bd0ff0 	pop	{r4, r5, r6, r7, r8, r9, sl, fp}
     db8:	e12fff1e 	bx	lr
     dbc:	e3580000 	cmp	r8, #0
     dc0:	128d3038 	addne	r3, sp, #56	; 0x38
     dc4:	13a0b001 	movne	fp, #1
     dc8:	0affffe5 	beq	d64 <zlib_inflate_table+0x8c>
     dcc:	e1f310b2 	ldrh	r1, [r3, #2]!
     dd0:	e3510000 	cmp	r1, #0
     dd4:	1a0000dd 	bne	1150 <zlib_inflate_table+0x478>
     dd8:	e28bb001 	add	fp, fp, #1
     ddc:	e35b0010 	cmp	fp, #16
     de0:	1afffff9 	bne	dcc <zlib_inflate_table+0xf4>
     de4:	e1a0a00b 	mov	sl, fp
     de8:	e28d1038 	add	r1, sp, #56	; 0x38
     dec:	e3a03001 	mov	r3, #1
     df0:	e1f150b2 	ldrh	r5, [r1, #2]!
     df4:	e0753083 	rsbs	r3, r5, r3, lsl #1
     df8:	4a0000d0 	bmi	1140 <zlib_inflate_table+0x468>
     dfc:	e1540001 	cmp	r4, r1
     e00:	1afffffa 	bne	df0 <zlib_inflate_table+0x118>
     e04:	e3530000 	cmp	r3, #0
     e08:	0a000005 	beq	e24 <zlib_inflate_table+0x14c>
     e0c:	e2703001 	rsbs	r3, r0, #1
     e10:	33a03000 	movcc	r3, #0
     e14:	e3580001 	cmp	r8, #1
     e18:	13833001 	orrne	r3, r3, #1
     e1c:	e3530000 	cmp	r3, #0
     e20:	1a0000c6 	bne	1140 <zlib_inflate_table+0x468>
     e24:	e3a05000 	mov	r5, #0
     e28:	e28d4078 	add	r4, sp, #120	; 0x78
     e2c:	e28d6054 	add	r6, sp, #84	; 0x54
     e30:	e28d3038 	add	r3, sp, #56	; 0x38
     e34:	e1a01005 	mov	r1, r5
     e38:	e16451be 	strh	r5, [r4, #-30]!	; 0xffffffe2
     e3c:	e1f350b2 	ldrh	r5, [r3, #2]!
     e40:	e0811005 	add	r1, r1, r5
     e44:	e1530006 	cmp	r3, r6
     e48:	e6ff1071 	uxth	r1, r1
     e4c:	e1e410b2 	strh	r1, [r4, #2]!
     e50:	1afffff9 	bne	e3c <zlib_inflate_table+0x164>
     e54:	e3520000 	cmp	r2, #0
     e58:	0a00000e 	beq	e98 <zlib_inflate_table+0x1c0>
     e5c:	e59d401c 	ldr	r4, [sp, #28]
     e60:	e3a03000 	mov	r3, #0
     e64:	e2441002 	sub	r1, r4, #2
     e68:	e1f140b2 	ldrh	r4, [r1, #2]!
     e6c:	e28d5078 	add	r5, sp, #120	; 0x78
     e70:	e3540000 	cmp	r4, #0
     e74:	e0854084 	add	r4, r5, r4, lsl #1
     e78:	115452b0 	ldrhne	r5, [r4, #-32]	; 0xffffffe0
     e7c:	12856001 	addne	r6, r5, #1
     e80:	114462b0 	strhne	r6, [r4, #-32]	; 0xffffffe0
     e84:	11a05085 	lslne	r5, r5, #1
     e88:	118c30b5 	strhne	r3, [ip, r5]
     e8c:	e2833001 	add	r3, r3, #1
     e90:	e1530002 	cmp	r3, r2
     e94:	1afffff3 	bne	e68 <zlib_inflate_table+0x190>
     e98:	e3500000 	cmp	r0, #0
     e9c:	0a0000f4 	beq	1274 <zlib_inflate_table+0x59c>
     ea0:	e3500001 	cmp	r0, #1
     ea4:	0a0000af 	beq	1168 <zlib_inflate_table+0x490>
     ea8:	e59f33d8 	ldr	r3, [pc, #984]	; 1288 <zlib_inflate_table+0x5b0>
     eac:	e3e06000 	mvn	r6, #0
     eb0:	e58d6018 	str	r6, [sp, #24]
     eb4:	e08f3003 	add	r3, pc, r3
     eb8:	e2837080 	add	r7, r3, #128	; 0x80
     ebc:	e28330c0 	add	r3, r3, #192	; 0xc0
     ec0:	e58d7034 	str	r7, [sp, #52]	; 0x34
     ec4:	e58d3030 	str	r3, [sp, #48]	; 0x30
     ec8:	e3a02001 	mov	r2, #1
     ecc:	e0503002 	subs	r3, r0, r2
     ed0:	e2730000 	rsbs	r0, r3, #0
     ed4:	e59d500c 	ldr	r5, [sp, #12]
     ed8:	e0b00003 	adcs	r0, r0, r3
     edc:	e1a03b12 	lsl	r3, r2, fp
     ee0:	e58d3014 	str	r3, [sp, #20]
     ee4:	e30035af 	movw	r3, #1455	; 0x5af
     ee8:	e59d4014 	ldr	r4, [sp, #20]
     eec:	e58d002c 	str	r0, [sp, #44]	; 0x2c
     ef0:	e5955000 	ldr	r5, [r5]
     ef4:	e1540003 	cmp	r4, r3
     ef8:	93a00000 	movls	r0, #0
     efc:	82000001 	andhi	r0, r0, #1
     f00:	e3500000 	cmp	r0, #0
     f04:	e58d5008 	str	r5, [sp, #8]
     f08:	1a0000a3 	bne	119c <zlib_inflate_table+0x4c4>
     f0c:	e2446001 	sub	r6, r4, #1
     f10:	e1a09000 	mov	r9, r0
     f14:	e1a0400b 	mov	r4, fp
     f18:	e1a0100a 	mov	r1, sl
     f1c:	e24cc002 	sub	ip, ip, #2
     f20:	e3e07000 	mvn	r7, #0
     f24:	e58dc004 	str	ip, [sp, #4]
     f28:	e58d6028 	str	r6, [sp, #40]	; 0x28
     f2c:	e58d7020 	str	r7, [sp, #32]
     f30:	e58db010 	str	fp, [sp, #16]
     f34:	e59d2004 	ldr	r2, [sp, #4]
     f38:	e6ef5071 	uxtb	r5, r1
     f3c:	e59d3018 	ldr	r3, [sp, #24]
     f40:	e1f2c0b2 	ldrh	ip, [r2, #2]!
     f44:	e153000c 	cmp	r3, ip
     f48:	e58d2004 	str	r2, [sp, #4]
     f4c:	c3a02000 	movgt	r2, #0
     f50:	c58d2000 	strgt	r2, [sp]
     f54:	ca000008 	bgt	f7c <zlib_inflate_table+0x2a4>
     f58:	b59d6034 	ldrlt	r6, [sp, #52]	; 0x34
     f5c:	b1a0c08c 	lsllt	ip, ip, #1
     f60:	b59d7030 	ldrlt	r7, [sp, #48]	; 0x30
     f64:	a3a0c000 	movge	ip, #0
     f68:	a3a03060 	movge	r3, #96	; 0x60
     f6c:	a58d3000 	strge	r3, [sp]
     f70:	b7d6600c 	ldrblt	r6, [r6, ip]
     f74:	b197c0bc 	ldrhlt	ip, [r7, ip]
     f78:	b58d6000 	strlt	r6, [sp]
     f7c:	e3a06001 	mov	r6, #1
     f80:	e59d7008 	ldr	r7, [sp, #8]
     f84:	e1a0b416 	lsl	fp, r6, r4
     f88:	e1a01116 	lsl	r1, r6, r1
     f8c:	e08b3930 	add	r3, fp, r0, lsr r9
     f90:	e0613003 	rsb	r3, r1, r3
     f94:	e0616f01 	rsb	r6, r1, r1, lsl #30
     f98:	e1a0200b 	mov	r2, fp
     f9c:	e0873103 	add	r3, r7, r3, lsl #2
     fa0:	e59d7000 	ldr	r7, [sp]
     fa4:	e1a06106 	lsl	r6, r6, #2
     fa8:	e0522001 	subs	r2, r2, r1
     fac:	e5c37000 	strb	r7, [r3]
     fb0:	e5c35001 	strb	r5, [r3, #1]
     fb4:	e1c3c0b2 	strh	ip, [r3, #2]
     fb8:	e0833006 	add	r3, r3, r6
     fbc:	1afffff9 	bne	fa8 <zlib_inflate_table+0x2d0>
     fc0:	e24a2001 	sub	r2, sl, #1
     fc4:	e3a0c001 	mov	ip, #1
     fc8:	e1a0321c 	lsl	r3, ip, r2
     fcc:	e1130000 	tst	r3, r0
     fd0:	0a000002 	beq	fe0 <zlib_inflate_table+0x308>
     fd4:	e1a030a3 	lsr	r3, r3, #1
     fd8:	e1100003 	tst	r0, r3
     fdc:	1afffffc 	bne	fd4 <zlib_inflate_table+0x2fc>
     fe0:	e3530000 	cmp	r3, #0
     fe4:	12431001 	subne	r1, r3, #1
     fe8:	10010000 	andne	r0, r1, r0
     fec:	01a00003 	moveq	r0, r3
     ff0:	10800003 	addne	r0, r0, r3
     ff4:	e28d3078 	add	r3, sp, #120	; 0x78
     ff8:	e083108a 	add	r1, r3, sl, lsl #1
     ffc:	e15134b0 	ldrh	r3, [r1, #-64]	; 0xffffffc0
    1000:	e2433001 	sub	r3, r3, #1
    1004:	e6ff3073 	uxth	r3, r3
    1008:	e14134b0 	strh	r3, [r1, #-64]	; 0xffffffc0
    100c:	e3530000 	cmp	r3, #0
    1010:	1a000006 	bne	1030 <zlib_inflate_table+0x358>
    1014:	e15a0008 	cmp	sl, r8
    1018:	0a000063 	beq	11ac <zlib_inflate_table+0x4d4>
    101c:	e59d7004 	ldr	r7, [sp, #4]
    1020:	e59dc01c 	ldr	ip, [sp, #28]
    1024:	e1d730b2 	ldrh	r3, [r7, #2]
    1028:	e1a03083 	lsl	r3, r3, #1
    102c:	e19ca0b3 	ldrh	sl, [ip, r3]
    1030:	e59d1010 	ldr	r1, [sp, #16]
    1034:	e15a0001 	cmp	sl, r1
    1038:	9a000055 	bls	1194 <zlib_inflate_table+0x4bc>
    103c:	e59d2028 	ldr	r2, [sp, #40]	; 0x28
    1040:	e59d3020 	ldr	r3, [sp, #32]
    1044:	e000c002 	and	ip, r0, r2
    1048:	e15c0003 	cmp	ip, r3
    104c:	0a000050 	beq	1194 <zlib_inflate_table+0x4bc>
    1050:	e59d4010 	ldr	r4, [sp, #16]
    1054:	e3590000 	cmp	r9, #0
    1058:	e59d5008 	ldr	r5, [sp, #8]
    105c:	e3a06001 	mov	r6, #1
    1060:	01a09004 	moveq	r9, r4
    1064:	e15a0008 	cmp	sl, r8
    1068:	e069400a 	rsb	r4, r9, sl
    106c:	e085510b 	add	r5, r5, fp, lsl #2
    1070:	e1a03416 	lsl	r3, r6, r4
    1074:	e58d5008 	str	r5, [sp, #8]
    1078:	e1a01004 	mov	r1, r4
    107c:	2a000012 	bcs	10cc <zlib_inflate_table+0x3f4>
    1080:	e1a0561a 	lsl	r5, sl, r6
    1084:	e28d7078 	add	r7, sp, #120	; 0x78
    1088:	e0872005 	add	r2, r7, r5
    108c:	e15224b0 	ldrh	r2, [r2, #-64]	; 0xffffffc0
    1090:	e0623003 	rsb	r3, r2, r3
    1094:	e3530000 	cmp	r3, #0
    1098:	da00000b 	ble	10cc <zlib_inflate_table+0x3f4>
    109c:	e28d2038 	add	r2, sp, #56	; 0x38
    10a0:	e0825005 	add	r5, r2, r5
    10a4:	ea000003 	b	10b8 <zlib_inflate_table+0x3e0>
    10a8:	e1f520b2 	ldrh	r2, [r5, #2]!
    10ac:	e0623003 	rsb	r3, r2, r3
    10b0:	e3530000 	cmp	r3, #0
    10b4:	da000004 	ble	10cc <zlib_inflate_table+0x3f4>
    10b8:	e2844001 	add	r4, r4, #1
    10bc:	e1a03083 	lsl	r3, r3, #1
    10c0:	e0892004 	add	r2, r9, r4
    10c4:	e1520008 	cmp	r2, r8
    10c8:	3afffff6 	bcc	10a8 <zlib_inflate_table+0x3d0>
    10cc:	e59d3014 	ldr	r3, [sp, #20]
    10d0:	e3a05001 	mov	r5, #1
    10d4:	e30075af 	movw	r7, #1455	; 0x5af
    10d8:	e0833415 	add	r3, r3, r5, lsl r4
    10dc:	e58d3014 	str	r3, [sp, #20]
    10e0:	e59d6014 	ldr	r6, [sp, #20]
    10e4:	e59d302c 	ldr	r3, [sp, #44]	; 0x2c
    10e8:	e1560007 	cmp	r6, r7
    10ec:	93a03000 	movls	r3, #0
    10f0:	82033001 	andhi	r3, r3, #1
    10f4:	e3530000 	cmp	r3, #0
    10f8:	1a000027 	bne	119c <zlib_inflate_table+0x4c4>
    10fc:	e59d300c 	ldr	r3, [sp, #12]
    1100:	e59d500c 	ldr	r5, [sp, #12]
    1104:	e59d6010 	ldr	r6, [sp, #16]
    1108:	e5932000 	ldr	r2, [r3]
    110c:	e1a0310c 	lsl	r3, ip, #2
    1110:	e59d7008 	ldr	r7, [sp, #8]
    1114:	e58dc020 	str	ip, [sp, #32]
    1118:	e7c2410c 	strb	r4, [r2, ip, lsl #2]
    111c:	e5952000 	ldr	r2, [r5]
    1120:	e0822003 	add	r2, r2, r3
    1124:	e5c26001 	strb	r6, [r2, #1]
    1128:	e5952000 	ldr	r2, [r5]
    112c:	e0823003 	add	r3, r2, r3
    1130:	e0622007 	rsb	r2, r2, r7
    1134:	e1a02142 	asr	r2, r2, #2
    1138:	e1c320b2 	strh	r2, [r3, #2]
    113c:	eaffff7c 	b	f34 <zlib_inflate_table+0x25c>
    1140:	e3e00000 	mvn	r0, #0
    1144:	e28dd078 	add	sp, sp, #120	; 0x78
    1148:	e8bd0ff0 	pop	{r4, r5, r6, r7, r8, r9, sl, fp}
    114c:	e12fff1e 	bx	lr
    1150:	e1580005 	cmp	r8, r5
    1154:	31a05008 	movcc	r5, r8
    1158:	e1a0a00b 	mov	sl, fp
    115c:	e15b0005 	cmp	fp, r5
    1160:	31a0b005 	movcc	fp, r5
    1164:	eaffff1f 	b	de8 <zlib_inflate_table+0x110>
    1168:	e59f311c 	ldr	r3, [pc, #284]	; 128c <zlib_inflate_table+0x5b4>
    116c:	e3a02c01 	mov	r2, #256	; 0x100
    1170:	e58d2018 	str	r2, [sp, #24]
    1174:	e08f3003 	add	r3, pc, r3
    1178:	e2432c02 	sub	r2, r3, #512	; 0x200
    117c:	e2433d07 	sub	r3, r3, #448	; 0x1c0
    1180:	e2422002 	sub	r2, r2, #2
    1184:	e2433002 	sub	r3, r3, #2
    1188:	e58d2034 	str	r2, [sp, #52]	; 0x34
    118c:	e58d3030 	str	r3, [sp, #48]	; 0x30
    1190:	eaffff4c 	b	ec8 <zlib_inflate_table+0x1f0>
    1194:	e069100a 	rsb	r1, r9, sl
    1198:	eaffff65 	b	f34 <zlib_inflate_table+0x25c>
    119c:	e3a00001 	mov	r0, #1
    11a0:	e28dd078 	add	sp, sp, #120	; 0x78
    11a4:	e8bd0ff0 	pop	{r4, r5, r6, r7, r8, r9, sl, fp}
    11a8:	e12fff1e 	bx	lr
    11ac:	e3500000 	cmp	r0, #0
    11b0:	e59db010 	ldr	fp, [sp, #16]
    11b4:	0a000021 	beq	1240 <zlib_inflate_table+0x568>
    11b8:	e59da008 	ldr	sl, [sp, #8]
    11bc:	e6ef807b 	uxtb	r8, fp
    11c0:	e3a06040 	mov	r6, #64	; 0x40
    11c4:	e3a07001 	mov	r7, #1
    11c8:	e3590000 	cmp	r9, #0
    11cc:	0a000026 	beq	126c <zlib_inflate_table+0x594>
    11d0:	e59dc028 	ldr	ip, [sp, #40]	; 0x28
    11d4:	e59d4020 	ldr	r4, [sp, #32]
    11d8:	e000100c 	and	r1, r0, ip
    11dc:	e1540001 	cmp	r4, r1
    11e0:	0a000021 	beq	126c <zlib_inflate_table+0x594>
    11e4:	e59d500c 	ldr	r5, [sp, #12]
    11e8:	e3a09000 	mov	r9, #0
    11ec:	e24b2001 	sub	r2, fp, #1
    11f0:	e1a04009 	mov	r4, r9
    11f4:	e595a000 	ldr	sl, [r5]
    11f8:	e1a05008 	mov	r5, r8
    11fc:	e1a04430 	lsr	r4, r0, r4
    1200:	e1a01217 	lsl	r1, r7, r2
    1204:	e1110000 	tst	r1, r0
    1208:	e08ac104 	add	ip, sl, r4, lsl #2
    120c:	e7ca6104 	strb	r6, [sl, r4, lsl #2]
    1210:	e5cc5001 	strb	r5, [ip, #1]
    1214:	e1cc30b2 	strh	r3, [ip, #2]
    1218:	0a000002 	beq	1228 <zlib_inflate_table+0x550>
    121c:	e1a010a1 	lsr	r1, r1, #1
    1220:	e1100001 	tst	r0, r1
    1224:	1afffffc 	bne	121c <zlib_inflate_table+0x544>
    1228:	e3510000 	cmp	r1, #0
    122c:	0a000003 	beq	1240 <zlib_inflate_table+0x568>
    1230:	e241c001 	sub	ip, r1, #1
    1234:	e00c0000 	and	r0, ip, r0
    1238:	e0900001 	adds	r0, r0, r1
    123c:	1affffe1 	bne	11c8 <zlib_inflate_table+0x4f0>
    1240:	e59d400c 	ldr	r4, [sp, #12]
    1244:	e3a00000 	mov	r0, #0
    1248:	e59d5014 	ldr	r5, [sp, #20]
    124c:	e59d6098 	ldr	r6, [sp, #152]	; 0x98
    1250:	e5943000 	ldr	r3, [r4]
    1254:	e0833105 	add	r3, r3, r5, lsl #2
    1258:	e5843000 	str	r3, [r4]
    125c:	e586b000 	str	fp, [r6]
    1260:	e28dd078 	add	sp, sp, #120	; 0x78
    1264:	e8bd0ff0 	pop	{r4, r5, r6, r7, r8, r9, sl, fp}
    1268:	e12fff1e 	bx	lr
    126c:	e1a04009 	mov	r4, r9
    1270:	eaffffe1 	b	11fc <zlib_inflate_table+0x524>
    1274:	e3a01013 	mov	r1, #19
    1278:	e58dc034 	str	ip, [sp, #52]	; 0x34
    127c:	e58dc030 	str	ip, [sp, #48]	; 0x30
    1280:	e58d1018 	str	r1, [sp, #24]
    1284:	eaffff0f 	b	ec8 <zlib_inflate_table+0x1f0>
    1288:	00004b14 	.word	0x00004b14
    128c:	00004854 	.word	0x00004854

00001290 <inflate_fast>:
    1290:	e92d0ff0 	push	{r4, r5, r6, r7, r8, r9, sl, fp}
    1294:	e1a0a000 	mov	sl, r0
    1298:	e59ab01c 	ldr	fp, [sl, #28]
    129c:	e24dd038 	sub	sp, sp, #56	; 0x38
    12a0:	e59a3010 	ldr	r3, [sl, #16]
    12a4:	e3a00001 	mov	r0, #1
    12a8:	e1a0c000 	mov	ip, r0
    12ac:	e59a400c 	ldr	r4, [sl, #12]
    12b0:	e59b7054 	ldr	r7, [fp, #84]	; 0x54
    12b4:	e2436c01 	sub	r6, r3, #256	; 0x100
    12b8:	e59b2050 	ldr	r2, [fp, #80]	; 0x50
    12bc:	e0611003 	rsb	r1, r1, r3
    12c0:	e59a3000 	ldr	r3, [sl]
    12c4:	e2444001 	sub	r4, r4, #1
    12c8:	e1a02210 	lsl	r2, r0, r2
    12cc:	e1a00710 	lsl	r0, r0, r7
    12d0:	e59b7024 	ldr	r7, [fp, #36]	; 0x24
    12d4:	e2433001 	sub	r3, r3, #1
    12d8:	e58d3000 	str	r3, [sp]
    12dc:	e2422001 	sub	r2, r2, #1
    12e0:	e59b3028 	ldr	r3, [fp, #40]	; 0x28
    12e4:	e2400001 	sub	r0, r0, #1
    12e8:	e58d7014 	str	r7, [sp, #20]
    12ec:	e2466001 	sub	r6, r6, #1
    12f0:	e59b7030 	ldr	r7, [fp, #48]	; 0x30
    12f4:	e0846006 	add	r6, r4, r6
    12f8:	e59b802c 	ldr	r8, [fp, #44]	; 0x2c
    12fc:	e0841001 	add	r1, r4, r1
    1300:	e59a5004 	ldr	r5, [sl, #4]
    1304:	e2477001 	sub	r7, r7, #1
    1308:	e58d3028 	str	r3, [sp, #40]	; 0x28
    130c:	e58d200c 	str	r2, [sp, #12]
    1310:	e2455005 	sub	r5, r5, #5
    1314:	e58d0020 	str	r0, [sp, #32]
    1318:	e59b3034 	ldr	r3, [fp, #52]	; 0x34
    131c:	e59b2038 	ldr	r2, [fp, #56]	; 0x38
    1320:	e59b0048 	ldr	r0, [fp, #72]	; 0x48
    1324:	e59b904c 	ldr	r9, [fp, #76]	; 0x4c
    1328:	e58d6004 	str	r6, [sp, #4]
    132c:	e58d702c 	str	r7, [sp, #44]	; 0x2c
    1330:	e59d6014 	ldr	r6, [sp, #20]
    1334:	e59d7000 	ldr	r7, [sp]
    1338:	e0886006 	add	r6, r8, r6
    133c:	e58d8010 	str	r8, [sp, #16]
    1340:	e0875005 	add	r5, r7, r5
    1344:	e58d1024 	str	r1, [sp, #36]	; 0x24
    1348:	e58d6030 	str	r6, [sp, #48]	; 0x30
    134c:	e58d5008 	str	r5, [sp, #8]
    1350:	e58db018 	str	fp, [sp, #24]
    1354:	e58da01c 	str	sl, [sp, #28]
    1358:	e352000e 	cmp	r2, #14
    135c:	8a000009 	bhi	1388 <inflate_fast+0xf8>
    1360:	e59d8000 	ldr	r8, [sp]
    1364:	e2821008 	add	r1, r2, #8
    1368:	e2888002 	add	r8, r8, #2
    136c:	e5d86000 	ldrb	r6, [r8]
    1370:	e5585001 	ldrb	r5, [r8, #-1]
    1374:	e58d8000 	str	r8, [sp]
    1378:	e1a01116 	lsl	r1, r6, r1
    137c:	e0811215 	add	r1, r1, r5, lsl r2
    1380:	e2822010 	add	r2, r2, #16
    1384:	e0833001 	add	r3, r3, r1
    1388:	e59d500c 	ldr	r5, [sp, #12]
    138c:	e0031005 	and	r1, r3, r5
    1390:	e0805101 	add	r5, r0, r1, lsl #2
    1394:	e7d01101 	ldrb	r1, [r0, r1, lsl #2]
    1398:	e5d56001 	ldrb	r6, [r5, #1]
    139c:	e3510000 	cmp	r1, #0
    13a0:	e1d550b2 	ldrh	r5, [r5, #2]
    13a4:	e1a03633 	lsr	r3, r3, r6
    13a8:	e0662002 	rsb	r2, r6, r2
    13ac:	1a00000e 	bne	13ec <inflate_fast+0x15c>
    13b0:	ea00005e 	b	1530 <inflate_fast+0x2a0>
    13b4:	e3110040 	tst	r1, #64	; 0x40
    13b8:	1a000067 	bne	155c <inflate_fast+0x2cc>
    13bc:	e1a0111c 	lsl	r1, ip, r1
    13c0:	e2411001 	sub	r1, r1, #1
    13c4:	e0031001 	and	r1, r3, r1
    13c8:	e0815005 	add	r5, r1, r5
    13cc:	e0807105 	add	r7, r0, r5, lsl #2
    13d0:	e7d01105 	ldrb	r1, [r0, r5, lsl #2]
    13d4:	e5d76001 	ldrb	r6, [r7, #1]
    13d8:	e3510000 	cmp	r1, #0
    13dc:	e1d750b2 	ldrh	r5, [r7, #2]
    13e0:	e1a03633 	lsr	r3, r3, r6
    13e4:	e0662002 	rsb	r2, r6, r2
    13e8:	0a000050 	beq	1530 <inflate_fast+0x2a0>
    13ec:	e3110010 	tst	r1, #16
    13f0:	0affffef 	beq	13b4 <inflate_fast+0x124>
    13f4:	e211100f 	ands	r1, r1, #15
    13f8:	e1a0b005 	mov	fp, r5
    13fc:	0a00000d 	beq	1438 <inflate_fast+0x1a8>
    1400:	e1510002 	cmp	r1, r2
    1404:	9a000005 	bls	1420 <inflate_fast+0x190>
    1408:	e59d7000 	ldr	r7, [sp]
    140c:	e2877001 	add	r7, r7, #1
    1410:	e5d76000 	ldrb	r6, [r7]
    1414:	e58d7000 	str	r7, [sp]
    1418:	e0833216 	add	r3, r3, r6, lsl r2
    141c:	e2822008 	add	r2, r2, #8
    1420:	e1a0611c 	lsl	r6, ip, r1
    1424:	e0612002 	rsb	r2, r1, r2
    1428:	e2466001 	sub	r6, r6, #1
    142c:	e0036006 	and	r6, r3, r6
    1430:	e1a03133 	lsr	r3, r3, r1
    1434:	e085b006 	add	fp, r5, r6
    1438:	e352000e 	cmp	r2, #14
    143c:	9a000052 	bls	158c <inflate_fast+0x2fc>
    1440:	e59d5020 	ldr	r5, [sp, #32]
    1444:	e0031005 	and	r1, r3, r5
    1448:	e0895101 	add	r5, r9, r1, lsl #2
    144c:	e7d96101 	ldrb	r6, [r9, r1, lsl #2]
    1450:	e5d51001 	ldrb	r1, [r5, #1]
    1454:	e3160010 	tst	r6, #16
    1458:	e1d550b2 	ldrh	r5, [r5, #2]
    145c:	e1a03133 	lsr	r3, r3, r1
    1460:	e0612002 	rsb	r2, r1, r2
    1464:	0a00000c 	beq	149c <inflate_fast+0x20c>
    1468:	ea000052 	b	15b8 <inflate_fast+0x328>
    146c:	e1a0661c 	lsl	r6, ip, r6
    1470:	e2466001 	sub	r6, r6, #1
    1474:	e0036006 	and	r6, r3, r6
    1478:	e0865005 	add	r5, r6, r5
    147c:	e0897105 	add	r7, r9, r5, lsl #2
    1480:	e7d96105 	ldrb	r6, [r9, r5, lsl #2]
    1484:	e5d71001 	ldrb	r1, [r7, #1]
    1488:	e3160010 	tst	r6, #16
    148c:	e1d750b2 	ldrh	r5, [r7, #2]
    1490:	e1a03133 	lsr	r3, r3, r1
    1494:	e0612002 	rsb	r2, r1, r2
    1498:	1a000046 	bne	15b8 <inflate_fast+0x328>
    149c:	e3160040 	tst	r6, #64	; 0x40
    14a0:	0afffff1 	beq	146c <inflate_fast+0x1dc>
    14a4:	e59db018 	ldr	fp, [sp, #24]
    14a8:	e3a0101b 	mov	r1, #27
    14ac:	e59da01c 	ldr	sl, [sp, #28]
    14b0:	e59f03e4 	ldr	r0, [pc, #996]	; 189c <inflate_fast+0x60c>
    14b4:	e08f0000 	add	r0, pc, r0
    14b8:	e58a0018 	str	r0, [sl, #24]
    14bc:	e58b1000 	str	r1, [fp]
    14c0:	e59dc004 	ldr	ip, [sp, #4]
    14c4:	e1a001a2 	lsr	r0, r2, #3
    14c8:	e59d5000 	ldr	r5, [sp]
    14cc:	e154000c 	cmp	r4, ip
    14d0:	e59d6008 	ldr	r6, [sp, #8]
    14d4:	e0601005 	rsb	r1, r0, r5
    14d8:	e0422180 	sub	r2, r2, r0, lsl #3
    14dc:	359d7004 	ldrcc	r7, [sp, #4]
    14e0:	e0610006 	rsb	r0, r1, r6
    14e4:	259d8004 	ldrcs	r8, [sp, #4]
    14e8:	e2811001 	add	r1, r1, #1
    14ec:	e58a1000 	str	r1, [sl]
    14f0:	e2841001 	add	r1, r4, #1
    14f4:	30644007 	rsbcc	r4, r4, r7
    14f8:	20644008 	rsbcs	r4, r4, r8
    14fc:	e3e0c000 	mvn	ip, #0
    1500:	e2844c01 	add	r4, r4, #256	; 0x100
    1504:	e58a100c 	str	r1, [sl, #12]
    1508:	e2800005 	add	r0, r0, #5
    150c:	e1c3321c 	bic	r3, r3, ip, lsl r2
    1510:	e58a0004 	str	r0, [sl, #4]
    1514:	e2844001 	add	r4, r4, #1
    1518:	e58a4010 	str	r4, [sl, #16]
    151c:	e58b3034 	str	r3, [fp, #52]	; 0x34
    1520:	e58b2038 	str	r2, [fp, #56]	; 0x38
    1524:	e28dd038 	add	sp, sp, #56	; 0x38
    1528:	e8bd0ff0 	pop	{r4, r5, r6, r7, r8, r9, sl, fp}
    152c:	e12fff1e 	bx	lr
    1530:	e5c45001 	strb	r5, [r4, #1]
    1534:	e2844001 	add	r4, r4, #1
    1538:	e59d6004 	ldr	r6, [sp, #4]
    153c:	e59d7000 	ldr	r7, [sp]
    1540:	e59d8008 	ldr	r8, [sp, #8]
    1544:	e1540006 	cmp	r4, r6
    1548:	31570008 	cmpcc	r7, r8
    154c:	3affff81 	bcc	1358 <inflate_fast+0xc8>
    1550:	e59db018 	ldr	fp, [sp, #24]
    1554:	e59da01c 	ldr	sl, [sp, #28]
    1558:	eaffffd8 	b	14c0 <inflate_fast+0x230>
    155c:	e59db018 	ldr	fp, [sp, #24]
    1560:	e3110020 	tst	r1, #32
    1564:	e59da01c 	ldr	sl, [sp, #28]
    1568:	13a0100b 	movne	r1, #11
    156c:	158b1000 	strne	r1, [fp]
    1570:	1affffd2 	bne	14c0 <inflate_fast+0x230>
    1574:	e59f0324 	ldr	r0, [pc, #804]	; 18a0 <inflate_fast+0x610>
    1578:	e3a0101b 	mov	r1, #27
    157c:	e08f0000 	add	r0, pc, r0
    1580:	e58a0018 	str	r0, [sl, #24]
    1584:	e58b1000 	str	r1, [fp]
    1588:	eaffffcc 	b	14c0 <inflate_fast+0x230>
    158c:	e59d8000 	ldr	r8, [sp]
    1590:	e2825008 	add	r5, r2, #8
    1594:	e2888002 	add	r8, r8, #2
    1598:	e5d86000 	ldrb	r6, [r8]
    159c:	e5581001 	ldrb	r1, [r8, #-1]
    15a0:	e58d8000 	str	r8, [sp]
    15a4:	e1a05516 	lsl	r5, r6, r5
    15a8:	e0851211 	add	r1, r5, r1, lsl r2
    15ac:	e2822010 	add	r2, r2, #16
    15b0:	e0833001 	add	r3, r3, r1
    15b4:	eaffffa1 	b	1440 <inflate_fast+0x1b0>
    15b8:	e206600f 	and	r6, r6, #15
    15bc:	e1560002 	cmp	r6, r2
    15c0:	9a00000d 	bls	15fc <inflate_fast+0x36c>
    15c4:	e59d8000 	ldr	r8, [sp]
    15c8:	e2821008 	add	r1, r2, #8
    15cc:	e1560001 	cmp	r6, r1
    15d0:	e5d87001 	ldrb	r7, [r8, #1]
    15d4:	92888001 	addls	r8, r8, #1
    15d8:	859d8000 	ldrhi	r8, [sp]
    15dc:	958d8000 	strls	r8, [sp]
    15e0:	e0833217 	add	r3, r3, r7, lsl r2
    15e4:	82822010 	addhi	r2, r2, #16
    15e8:	85d87002 	ldrbhi	r7, [r8, #2]
    15ec:	91a02001 	movls	r2, r1
    15f0:	82888002 	addhi	r8, r8, #2
    15f4:	858d8000 	strhi	r8, [sp]
    15f8:	80833117 	addhi	r3, r3, r7, lsl r1
    15fc:	e1a0161c 	lsl	r1, ip, r6
    1600:	e59d8024 	ldr	r8, [sp, #36]	; 0x24
    1604:	e2411001 	sub	r1, r1, #1
    1608:	e0662002 	rsb	r2, r6, r2
    160c:	e0031001 	and	r1, r3, r1
    1610:	e0687004 	rsb	r7, r8, r4
    1614:	e0811005 	add	r1, r1, r5
    1618:	e1a03633 	lsr	r3, r3, r6
    161c:	e1510007 	cmp	r1, r7
    1620:	9a00002c 	bls	16d8 <inflate_fast+0x448>
    1624:	e59d5028 	ldr	r5, [sp, #40]	; 0x28
    1628:	e0678001 	rsb	r8, r7, r1
    162c:	e1550008 	cmp	r5, r8
    1630:	3a000091 	bcc	187c <inflate_fast+0x5ec>
    1634:	e59d6010 	ldr	r6, [sp, #16]
    1638:	e3560000 	cmp	r6, #0
    163c:	1a000051 	bne	1788 <inflate_fast+0x4f8>
    1640:	e59d7014 	ldr	r7, [sp, #20]
    1644:	e15b0008 	cmp	fp, r8
    1648:	e59d502c 	ldr	r5, [sp, #44]	; 0x2c
    164c:	e068a007 	rsb	sl, r8, r7
    1650:	e085a00a 	add	sl, r5, sl
    1654:	8a00007e 	bhi	1854 <inflate_fast+0x5c4>
    1658:	e1a08004 	mov	r8, r4
    165c:	e35b0002 	cmp	fp, #2
    1660:	e1a0100a 	mov	r1, sl
    1664:	e1a04008 	mov	r4, r8
    1668:	858d0034 	strhi	r0, [sp, #52]	; 0x34
    166c:	83a05000 	movhi	r5, #0
    1670:	9a00000e 	bls	16b0 <inflate_fast+0x420>
    1674:	e5d17001 	ldrb	r7, [r1, #1]
    1678:	e08a6005 	add	r6, sl, r5
    167c:	e24bb003 	sub	fp, fp, #3
    1680:	e0880005 	add	r0, r8, r5
    1684:	e35b0002 	cmp	fp, #2
    1688:	e2811003 	add	r1, r1, #3
    168c:	e5c47001 	strb	r7, [r4, #1]
    1690:	e2855003 	add	r5, r5, #3
    1694:	e5517001 	ldrb	r7, [r1, #-1]
    1698:	e2844003 	add	r4, r4, #3
    169c:	e5447001 	strb	r7, [r4, #-1]
    16a0:	e5d66003 	ldrb	r6, [r6, #3]
    16a4:	e5c06003 	strb	r6, [r0, #3]
    16a8:	8afffff1 	bhi	1674 <inflate_fast+0x3e4>
    16ac:	e59d0034 	ldr	r0, [sp, #52]	; 0x34
    16b0:	e35b0000 	cmp	fp, #0
    16b4:	0affff9f 	beq	1538 <inflate_fast+0x2a8>
    16b8:	e5d15001 	ldrb	r5, [r1, #1]
    16bc:	e35b0002 	cmp	fp, #2
    16c0:	e5c45001 	strb	r5, [r4, #1]
    16c4:	1a00001f 	bne	1748 <inflate_fast+0x4b8>
    16c8:	e5d11002 	ldrb	r1, [r1, #2]
    16cc:	e2844002 	add	r4, r4, #2
    16d0:	e5c41000 	strb	r1, [r4]
    16d4:	eaffff97 	b	1538 <inflate_fast+0x2a8>
    16d8:	e3140001 	tst	r4, #1
    16dc:	e0618004 	rsb	r8, r1, r4
    16e0:	024bb001 	subeq	fp, fp, #1
    16e4:	05d85001 	ldrbeq	r5, [r8, #1]
    16e8:	02888001 	addeq	r8, r8, #1
    16ec:	05c45001 	strbeq	r5, [r4, #1]
    16f0:	02844001 	addeq	r4, r4, #1
    16f4:	e3510002 	cmp	r1, #2
    16f8:	e2447001 	sub	r7, r4, #1
    16fc:	9a000013 	bls	1750 <inflate_fast+0x4c0>
    1700:	e2488001 	sub	r8, r8, #1
    1704:	e1a0a0ab 	lsr	sl, fp, #1
    1708:	e1a05007 	mov	r5, r7
    170c:	e1a04008 	mov	r4, r8
    1710:	e1a0100a 	mov	r1, sl
    1714:	e1f460b2 	ldrh	r6, [r4, #2]!
    1718:	e2511001 	subs	r1, r1, #1
    171c:	e1e560b2 	strh	r6, [r5, #2]!
    1720:	1afffffb 	bne	1714 <inflate_fast+0x484>
    1724:	e1a0a08a 	lsl	sl, sl, #1
    1728:	e087400a 	add	r4, r7, sl
    172c:	e088800a 	add	r8, r8, sl
    1730:	e2844001 	add	r4, r4, #1
    1734:	e2888001 	add	r8, r8, #1
    1738:	e31b0001 	tst	fp, #1
    173c:	0affff7d 	beq	1538 <inflate_fast+0x2a8>
    1740:	e5d81001 	ldrb	r1, [r8, #1]
    1744:	e5c41001 	strb	r1, [r4, #1]
    1748:	e2844001 	add	r4, r4, #1
    174c:	eaffff79 	b	1538 <inflate_fast+0x2a8>
    1750:	e15450b1 	ldrh	r5, [r4, #-1]
    1754:	e3510001 	cmp	r1, #1
    1758:	e1a060ab 	lsr	r6, fp, #1
    175c:	e1a04007 	mov	r4, r7
    1760:	01a01425 	lsreq	r1, r5, #8
    1764:	07c75011 	bfieq	r5, r1, #0, #8
    1768:	e1a01006 	mov	r1, r6
    176c:	06ff5075 	uxtheq	r5, r5
    1770:	e2511001 	subs	r1, r1, #1
    1774:	e1e450b2 	strh	r5, [r4, #2]!
    1778:	1afffffc 	bne	1770 <inflate_fast+0x4e0>
    177c:	e0874086 	add	r4, r7, r6, lsl #1
    1780:	e2844001 	add	r4, r4, #1
    1784:	eaffffeb 	b	1738 <inflate_fast+0x4a8>
    1788:	e59d6010 	ldr	r6, [sp, #16]
    178c:	e1560008 	cmp	r6, r8
    1790:	2a00001f 	bcs	1814 <inflate_fast+0x584>
    1794:	e0667008 	rsb	r7, r6, r8
    1798:	e59d5030 	ldr	r5, [sp, #48]	; 0x30
    179c:	e59d602c 	ldr	r6, [sp, #44]	; 0x2c
    17a0:	e15b0007 	cmp	fp, r7
    17a4:	e068a005 	rsb	sl, r8, r5
    17a8:	e58d7034 	str	r7, [sp, #52]	; 0x34
    17ac:	e086a00a 	add	sl, r6, sl
    17b0:	9affffa8 	bls	1658 <inflate_fast+0x3c8>
    17b4:	e067b00b 	rsb	fp, r7, fp
    17b8:	e08a7007 	add	r7, sl, r7
    17bc:	e1a05004 	mov	r5, r4
    17c0:	e5fa6001 	ldrb	r6, [sl, #1]!
    17c4:	e15a0007 	cmp	sl, r7
    17c8:	e5e56001 	strb	r6, [r5, #1]!
    17cc:	1afffffb 	bne	17c0 <inflate_fast+0x530>
    17d0:	e59d7010 	ldr	r7, [sp, #16]
    17d4:	e59d5034 	ldr	r5, [sp, #52]	; 0x34
    17d8:	e157000b 	cmp	r7, fp
    17dc:	e0848005 	add	r8, r4, r5
    17e0:	2a000023 	bcs	1874 <inflate_fast+0x5e4>
    17e4:	e59d6010 	ldr	r6, [sp, #16]
    17e8:	e1a07008 	mov	r7, r8
    17ec:	e59d402c 	ldr	r4, [sp, #44]	; 0x2c
    17f0:	e066b00b 	rsb	fp, r6, fp
    17f4:	e0886006 	add	r6, r8, r6
    17f8:	e5f45001 	ldrb	r5, [r4, #1]!
    17fc:	e5e75001 	strb	r5, [r7, #1]!
    1800:	e1570006 	cmp	r7, r6
    1804:	1afffffb 	bne	17f8 <inflate_fast+0x568>
    1808:	e1a08007 	mov	r8, r7
    180c:	e061a007 	rsb	sl, r1, r7
    1810:	eaffff91 	b	165c <inflate_fast+0x3cc>
    1814:	e59d7010 	ldr	r7, [sp, #16]
    1818:	e15b0008 	cmp	fp, r8
    181c:	e59d502c 	ldr	r5, [sp, #44]	; 0x2c
    1820:	e068a007 	rsb	sl, r8, r7
    1824:	e085a00a 	add	sl, r5, sl
    1828:	9affff8a 	bls	1658 <inflate_fast+0x3c8>
    182c:	e068b00b 	rsb	fp, r8, fp
    1830:	e08a7008 	add	r7, sl, r8
    1834:	e1a05004 	mov	r5, r4
    1838:	e5fa6001 	ldrb	r6, [sl, #1]!
    183c:	e15a0007 	cmp	sl, r7
    1840:	e5e56001 	strb	r6, [r5, #1]!
    1844:	1afffffb 	bne	1838 <inflate_fast+0x5a8>
    1848:	e0848008 	add	r8, r4, r8
    184c:	e061a008 	rsb	sl, r1, r8
    1850:	eaffff81 	b	165c <inflate_fast+0x3cc>
    1854:	e068b00b 	rsb	fp, r8, fp
    1858:	e08a7008 	add	r7, sl, r8
    185c:	e1a05004 	mov	r5, r4
    1860:	e5fa6001 	ldrb	r6, [sl, #1]!
    1864:	e15a0007 	cmp	sl, r7
    1868:	e5e56001 	strb	r6, [r5, #1]!
    186c:	1afffffb 	bne	1860 <inflate_fast+0x5d0>
    1870:	eafffff4 	b	1848 <inflate_fast+0x5b8>
    1874:	e59da02c 	ldr	sl, [sp, #44]	; 0x2c
    1878:	eaffff77 	b	165c <inflate_fast+0x3cc>
    187c:	e59db018 	ldr	fp, [sp, #24]
    1880:	e3a0101b 	mov	r1, #27
    1884:	e59da01c 	ldr	sl, [sp, #28]
    1888:	e59f0014 	ldr	r0, [pc, #20]	; 18a4 <inflate_fast+0x614>
    188c:	e08f0000 	add	r0, pc, r0
    1890:	e58a0018 	str	r0, [sl, #24]
    1894:	e58b1000 	str	r1, [fp]
    1898:	eaffff08 	b	14c0 <inflate_fast+0x230>
    189c:	00004f90 	.word	0x00004f90
    18a0:	00004ee0 	.word	0x00004ee0
    18a4:	00004b98 	.word	0x00004b98

000018a8 <zlib_inflate_workspacesize>:
    18a8:	e30a052c 	movw	r0, #42284	; 0xa52c
    18ac:	e12fff1e 	bx	lr

000018b0 <zlib_inflateReset>:
    18b0:	e2501000 	subs	r1, r0, #0
    18b4:	e92d0030 	push	{r4, r5}
    18b8:	0a00001d 	beq	1934 <zlib_inflateReset+0x84>
    18bc:	e591301c 	ldr	r3, [r1, #28]
    18c0:	e3530000 	cmp	r3, #0
    18c4:	0a00001a 	beq	1934 <zlib_inflateReset+0x84>
    18c8:	e3a02000 	mov	r2, #0
    18cc:	e3a04001 	mov	r4, #1
    18d0:	e583201c 	str	r2, [r3, #28]
    18d4:	e283ce52 	add	ip, r3, #1312	; 0x520
    18d8:	e5814028 	str	r4, [r1, #40]	; 0x28
    18dc:	e1a00002 	mov	r0, r2
    18e0:	e5812014 	str	r2, [r1, #20]
    18e4:	e28cc00c 	add	ip, ip, #12
    18e8:	e5812008 	str	r2, [r1, #8]
    18ec:	e3a05902 	mov	r5, #32768	; 0x8000
    18f0:	e5812018 	str	r2, [r1, #24]
    18f4:	e5931020 	ldr	r1, [r3, #32]
    18f8:	e5832000 	str	r2, [r3]
    18fc:	e1a04114 	lsl	r4, r4, r1
    1900:	e5832004 	str	r2, [r3, #4]
    1904:	e583200c 	str	r2, [r3, #12]
    1908:	e5832034 	str	r2, [r3, #52]	; 0x34
    190c:	e5832038 	str	r2, [r3, #56]	; 0x38
    1910:	e583202c 	str	r2, [r3, #44]	; 0x2c
    1914:	e5832028 	str	r2, [r3, #40]	; 0x28
    1918:	e5834024 	str	r4, [r3, #36]	; 0x24
    191c:	e583c068 	str	ip, [r3, #104]	; 0x68
    1920:	e583c04c 	str	ip, [r3, #76]	; 0x4c
    1924:	e583c048 	str	ip, [r3, #72]	; 0x48
    1928:	e5835014 	str	r5, [r3, #20]
    192c:	e8bd0030 	pop	{r4, r5}
    1930:	e12fff1e 	bx	lr
    1934:	e3e00001 	mvn	r0, #1
    1938:	eafffffb 	b	192c <zlib_inflateReset+0x7c>

0000193c <zlib_inflateInit2>:
    193c:	e2503000 	subs	r3, r0, #0
    1940:	0a000013 	beq	1994 <zlib_inflateInit2+0x58>
    1944:	e5932020 	ldr	r2, [r3, #32]
    1948:	e3510000 	cmp	r1, #0
    194c:	e3a00000 	mov	r0, #0
    1950:	b2611000 	rsblt	r1, r1, #0
    1954:	e5830018 	str	r0, [r3, #24]
    1958:	a1a00241 	asrge	r0, r1, #4
    195c:	a2800001 	addge	r0, r0, #1
    1960:	e583201c 	str	r2, [r3, #28]
    1964:	b5820008 	strlt	r0, [r2, #8]
    1968:	a5820008 	strge	r0, [r2, #8]
    196c:	e2410008 	sub	r0, r1, #8
    1970:	e3500007 	cmp	r0, #7
    1974:	8a000006 	bhi	1994 <zlib_inflateInit2+0x58>
    1978:	e5821020 	str	r1, [r2, #32]
    197c:	e1a00003 	mov	r0, r3
    1980:	e5933020 	ldr	r3, [r3, #32]
    1984:	e2833c25 	add	r3, r3, #9472	; 0x2500
    1988:	e283302c 	add	r3, r3, #44	; 0x2c
    198c:	e5823030 	str	r3, [r2, #48]	; 0x30
    1990:	eaffffc6 	b	18b0 <zlib_inflateReset>
    1994:	e3e00001 	mvn	r0, #1
    1998:	e12fff1e 	bx	lr

0000199c <zlib_inflate>:
    199c:	e92d4ff0 	push	{r4, r5, r6, r7, r8, r9, sl, fp, lr}
    19a0:	e250b000 	subs	fp, r0, #0
    19a4:	e24dd044 	sub	sp, sp, #68	; 0x44
    19a8:	e58d1024 	str	r1, [sp, #36]	; 0x24
    19ac:	0a000372 	beq	277c <zlib_inflate+0xde0>
    19b0:	e59ba01c 	ldr	sl, [fp, #28]
    19b4:	e35a0000 	cmp	sl, #0
    19b8:	0a00036f 	beq	277c <zlib_inflate+0xde0>
    19bc:	e59b2000 	ldr	r2, [fp]
    19c0:	e3520000 	cmp	r2, #0
    19c4:	0a000369 	beq	2770 <zlib_inflate+0xdd4>
    19c8:	e59a3000 	ldr	r3, [sl]
    19cc:	e3a0c000 	mov	ip, #0
    19d0:	e58dc01c 	str	ip, [sp, #28]
    19d4:	e353000b 	cmp	r3, #11
    19d8:	e59a8034 	ldr	r8, [sl, #52]	; 0x34
    19dc:	e59a4038 	ldr	r4, [sl, #56]	; 0x38
    19e0:	03a0300c 	moveq	r3, #12
    19e4:	058a3000 	streq	r3, [sl]
    19e8:	e59bc010 	ldr	ip, [fp, #16]
    19ec:	11a09002 	movne	r9, r2
    19f0:	e59f2ff0 	ldr	r2, [pc, #4080]	; 29e8 <zlib_inflate+0x104c>
    19f4:	059b9000 	ldreq	r9, [fp]
    19f8:	e58dc008 	str	ip, [sp, #8]
    19fc:	e08f2002 	add	r2, pc, r2
    1a00:	e59bc004 	ldr	ip, [fp, #4]
    1a04:	e2822d26 	add	r2, r2, #2432	; 0x980
    1a08:	e58d2010 	str	r2, [sp, #16]
    1a0c:	e59f2fd8 	ldr	r2, [pc, #4056]	; 29ec <zlib_inflate+0x1050>
    1a10:	e58dc00c 	str	ip, [sp, #12]
    1a14:	e59dc010 	ldr	ip, [sp, #16]
    1a18:	e08f2002 	add	r2, pc, r2
    1a1c:	e59d700c 	ldr	r7, [sp, #12]
    1a20:	e2822d26 	add	r2, r2, #2432	; 0x980
    1a24:	e28cc024 	add	ip, ip, #36	; 0x24
    1a28:	e58dc02c 	str	ip, [sp, #44]	; 0x2c
    1a2c:	e59dc008 	ldr	ip, [sp, #8]
    1a30:	e58d2014 	str	r2, [sp, #20]
    1a34:	e1a0200b 	mov	r2, fp
    1a38:	e58dc018 	str	ip, [sp, #24]
    1a3c:	e59bc00c 	ldr	ip, [fp, #12]
    1a40:	e1a0b00a 	mov	fp, sl
    1a44:	e1a0a002 	mov	sl, r2
    1a48:	e58dc020 	str	ip, [sp, #32]
    1a4c:	e59fcf9c 	ldr	ip, [pc, #3996]	; 29f0 <zlib_inflate+0x1054>
    1a50:	e08fc00c 	add	ip, pc, ip
    1a54:	e58dc028 	str	ip, [sp, #40]	; 0x28
    1a58:	e353001c 	cmp	r3, #28
    1a5c:	908ff103 	addls	pc, pc, r3, lsl #2
    1a60:	ea000345 	b	277c <zlib_inflate+0xde0>
    1a64:	ea000320 	b	26ec <zlib_inflate+0xd50>
    1a68:	ea000343 	b	277c <zlib_inflate+0xde0>
    1a6c:	ea000342 	b	277c <zlib_inflate+0xde0>
    1a70:	ea000341 	b	277c <zlib_inflate+0xde0>
    1a74:	ea000340 	b	277c <zlib_inflate+0xde0>
    1a78:	ea00033f 	b	277c <zlib_inflate+0xde0>
    1a7c:	ea00033e 	b	277c <zlib_inflate+0xde0>
    1a80:	ea00033d 	b	277c <zlib_inflate+0xde0>
    1a84:	ea00033c 	b	277c <zlib_inflate+0xde0>
    1a88:	ea000018 	b	1af0 <zlib_inflate+0x154>
    1a8c:	ea000026 	b	1b2c <zlib_inflate+0x190>
    1a90:	ea00002d 	b	1b4c <zlib_inflate+0x1b0>
    1a94:	ea00002f 	b	1b58 <zlib_inflate+0x1bc>
    1a98:	ea0002a8 	b	2540 <zlib_inflate+0xba4>
    1a9c:	ea0002b6 	b	257c <zlib_inflate+0xbe0>
    1aa0:	ea00004c 	b	1bd8 <zlib_inflate+0x23c>
    1aa4:	ea0002cf 	b	25e8 <zlib_inflate+0xc4c>
    1aa8:	ea000063 	b	1c3c <zlib_inflate+0x2a0>
    1aac:	ea000256 	b	240c <zlib_inflate+0xa70>
    1ab0:	ea000274 	b	2488 <zlib_inflate+0xaec>
    1ab4:	ea00015f 	b	2038 <zlib_inflate+0x69c>
    1ab8:	ea00017a 	b	20a8 <zlib_inflate+0x70c>
    1abc:	ea000186 	b	20dc <zlib_inflate+0x740>
    1ac0:	ea00027f 	b	24c4 <zlib_inflate+0xb28>
    1ac4:	ea0001b8 	b	21ac <zlib_inflate+0x810>
    1ac8:	ea00032b 	b	277c <zlib_inflate+0xde0>
    1acc:	ea0001ad 	b	2188 <zlib_inflate+0x7ec>
    1ad0:	ea000270 	b	2498 <zlib_inflate+0xafc>
    1ad4:	ea000278 	b	24bc <zlib_inflate+0xb20>
    1ad8:	e3570000 	cmp	r7, #0
    1adc:	0a000077 	beq	1cc0 <zlib_inflate+0x324>
    1ae0:	e4d93001 	ldrb	r3, [r9], #1
    1ae4:	e2477001 	sub	r7, r7, #1
    1ae8:	e0888413 	add	r8, r8, r3, lsl r4
    1aec:	e2844008 	add	r4, r4, #8
    1af0:	e354001f 	cmp	r4, #31
    1af4:	9afffff7 	bls	1ad8 <zlib_inflate+0x13c>
    1af8:	e1a01c28 	lsr	r1, r8, #24
    1afc:	e1a03428 	lsr	r3, r8, #8
    1b00:	e0811c08 	add	r1, r1, r8, lsl #24
    1b04:	e2082cff 	and	r2, r8, #65280	; 0xff00
    1b08:	e2033cff 	and	r3, r3, #65280	; 0xff00
    1b0c:	e3a08000 	mov	r8, #0
    1b10:	e0813003 	add	r3, r1, r3
    1b14:	e1a04008 	mov	r4, r8
    1b18:	e0833402 	add	r3, r3, r2, lsl #8
    1b1c:	e58b3018 	str	r3, [fp, #24]
    1b20:	e58a3028 	str	r3, [sl, #40]	; 0x28
    1b24:	e3a0300a 	mov	r3, #10
    1b28:	e58b3000 	str	r3, [fp]
    1b2c:	e59b300c 	ldr	r3, [fp, #12]
    1b30:	e3530000 	cmp	r3, #0
    1b34:	0a00046d 	beq	2cf0 <zlib_inflate+0x1354>
    1b38:	e3a03001 	mov	r3, #1
    1b3c:	e58b3018 	str	r3, [fp, #24]
    1b40:	e58a3028 	str	r3, [sl, #40]	; 0x28
    1b44:	e3a0300b 	mov	r3, #11
    1b48:	e58b3000 	str	r3, [fp]
    1b4c:	e59dc024 	ldr	ip, [sp, #36]	; 0x24
    1b50:	e35c0006 	cmp	ip, #6
    1b54:	0a00035c 	beq	28cc <zlib_inflate+0xf30>
    1b58:	e59b3004 	ldr	r3, [fp, #4]
    1b5c:	e3530000 	cmp	r3, #0
    1b60:	1a00011d 	bne	1fdc <zlib_inflate+0x640>
    1b64:	e3540002 	cmp	r4, #2
    1b68:	8a000005 	bhi	1b84 <zlib_inflate+0x1e8>
    1b6c:	e3570000 	cmp	r7, #0
    1b70:	0a0003fd 	beq	2b6c <zlib_inflate+0x11d0>
    1b74:	e4d93001 	ldrb	r3, [r9], #1
    1b78:	e2477001 	sub	r7, r7, #1
    1b7c:	e0888413 	add	r8, r8, r3, lsl r4
    1b80:	e2844008 	add	r4, r4, #8
    1b84:	e1a020a8 	lsr	r2, r8, #1
    1b88:	e2088001 	and	r8, r8, #1
    1b8c:	e2023003 	and	r3, r2, #3
    1b90:	e58b8004 	str	r8, [fp, #4]
    1b94:	e3530002 	cmp	r3, #2
    1b98:	0a0003cb 	beq	2acc <zlib_inflate+0x1130>
    1b9c:	e3530003 	cmp	r3, #3
    1ba0:	0a000342 	beq	28b0 <zlib_inflate+0xf14>
    1ba4:	e3530001 	cmp	r3, #1
    1ba8:	0a0003ba 	beq	2a98 <zlib_inflate+0x10fc>
    1bac:	e3a0300d 	mov	r3, #13
    1bb0:	e58b3000 	str	r3, [fp]
    1bb4:	e1a08122 	lsr	r8, r2, #2
    1bb8:	e2444003 	sub	r4, r4, #3
    1bbc:	eaffffa5 	b	1a58 <zlib_inflate+0xbc>
    1bc0:	e3570000 	cmp	r7, #0
    1bc4:	0a00003d 	beq	1cc0 <zlib_inflate+0x324>
    1bc8:	e4d93001 	ldrb	r3, [r9], #1
    1bcc:	e2477001 	sub	r7, r7, #1
    1bd0:	e0888413 	add	r8, r8, r3, lsl r4
    1bd4:	e2844008 	add	r4, r4, #8
    1bd8:	e354000d 	cmp	r4, #13
    1bdc:	9afffff7 	bls	1bc0 <zlib_inflate+0x224>
    1be0:	e208301f 	and	r3, r8, #31
    1be4:	e300211e 	movw	r2, #286	; 0x11e
    1be8:	e2833c01 	add	r3, r3, #256	; 0x100
    1bec:	e7e31558 	ubfx	r1, r8, #10, #4
    1bf0:	e2833001 	add	r3, r3, #1
    1bf4:	e58b305c 	str	r3, [fp, #92]	; 0x5c
    1bf8:	e1530002 	cmp	r3, r2
    1bfc:	e7e432d8 	ubfx	r3, r8, #5, #5
    1c00:	e2833001 	add	r3, r3, #1
    1c04:	e2811004 	add	r1, r1, #4
    1c08:	e244400e 	sub	r4, r4, #14
    1c0c:	e58b3060 	str	r3, [fp, #96]	; 0x60
    1c10:	e58b1058 	str	r1, [fp, #88]	; 0x58
    1c14:	e1a08728 	lsr	r8, r8, #14
    1c18:	8a000342 	bhi	2928 <zlib_inflate+0xf8c>
    1c1c:	e353001e 	cmp	r3, #30
    1c20:	8a000340 	bhi	2928 <zlib_inflate+0xf8c>
    1c24:	e3a03000 	mov	r3, #0
    1c28:	e3a00010 	mov	r0, #16
    1c2c:	e1a02003 	mov	r2, r3
    1c30:	e58b3064 	str	r3, [fp, #100]	; 0x64
    1c34:	e58b0000 	str	r0, [fp]
    1c38:	ea00026e 	b	25f8 <zlib_inflate+0xc5c>
    1c3c:	e59bc064 	ldr	ip, [fp, #100]	; 0x64
    1c40:	e59b005c 	ldr	r0, [fp, #92]	; 0x5c
    1c44:	e3a06001 	mov	r6, #1
    1c48:	e59b5060 	ldr	r5, [fp, #96]	; 0x60
    1c4c:	e28b106a 	add	r1, fp, #106	; 0x6a
    1c50:	e58d1034 	str	r1, [sp, #52]	; 0x34
    1c54:	e0805005 	add	r5, r0, r5
    1c58:	e58d0030 	str	r0, [sp, #48]	; 0x30
    1c5c:	e15c0005 	cmp	ip, r5
    1c60:	2a0003fb 	bcs	2c54 <zlib_inflate+0x12b8>
    1c64:	e59b0050 	ldr	r0, [fp, #80]	; 0x50
    1c68:	e59b1048 	ldr	r1, [fp, #72]	; 0x48
    1c6c:	e1a00016 	lsl	r0, r6, r0
    1c70:	e2400001 	sub	r0, r0, #1
    1c74:	e0083000 	and	r3, r8, r0
    1c78:	e0813103 	add	r3, r1, r3, lsl #2
    1c7c:	e5d32001 	ldrb	r2, [r3, #1]
    1c80:	e1d330b2 	ldrh	r3, [r3, #2]
    1c84:	e1540002 	cmp	r4, r2
    1c88:	3a00000a 	bcc	1cb8 <zlib_inflate+0x31c>
    1c8c:	ea000423 	b	2d20 <zlib_inflate+0x1384>
    1c90:	e4d93001 	ldrb	r3, [r9], #1
    1c94:	e2477001 	sub	r7, r7, #1
    1c98:	e0888413 	add	r8, r8, r3, lsl r4
    1c9c:	e2844008 	add	r4, r4, #8
    1ca0:	e0083000 	and	r3, r8, r0
    1ca4:	e0813103 	add	r3, r1, r3, lsl #2
    1ca8:	e5d32001 	ldrb	r2, [r3, #1]
    1cac:	e1d330b2 	ldrh	r3, [r3, #2]
    1cb0:	e1520004 	cmp	r2, r4
    1cb4:	9a000419 	bls	2d20 <zlib_inflate+0x1384>
    1cb8:	e3570000 	cmp	r7, #0
    1cbc:	1afffff3 	bne	1c90 <zlib_inflate+0x2f4>
    1cc0:	e1a0300a 	mov	r3, sl
    1cc4:	e1a0a00b 	mov	sl, fp
    1cc8:	e1a0b003 	mov	fp, r3
    1ccc:	e59d201c 	ldr	r2, [sp, #28]
    1cd0:	e59dc024 	ldr	ip, [sp, #36]	; 0x24
    1cd4:	e2722001 	rsbs	r2, r2, #1
    1cd8:	33a02000 	movcc	r2, #0
    1cdc:	e58d2010 	str	r2, [sp, #16]
    1ce0:	e35c0002 	cmp	ip, #2
    1ce4:	13a02000 	movne	r2, #0
    1ce8:	02022001 	andeq	r2, r2, #1
    1cec:	e58d2014 	str	r2, [sp, #20]
    1cf0:	e59dc020 	ldr	ip, [sp, #32]
    1cf4:	e58b9000 	str	r9, [fp]
    1cf8:	e58b7004 	str	r7, [fp, #4]
    1cfc:	e58bc00c 	str	ip, [fp, #12]
    1d00:	e59dc008 	ldr	ip, [sp, #8]
    1d04:	e58bc010 	str	ip, [fp, #16]
    1d08:	e59a3024 	ldr	r3, [sl, #36]	; 0x24
    1d0c:	e58a8034 	str	r8, [sl, #52]	; 0x34
    1d10:	e3530000 	cmp	r3, #0
    1d14:	e58a4038 	str	r4, [sl, #56]	; 0x38
    1d18:	1a000006 	bne	1d38 <zlib_inflate+0x39c>
    1d1c:	e59a2000 	ldr	r2, [sl]
    1d20:	e3520017 	cmp	r2, #23
    1d24:	8a000006 	bhi	1d44 <zlib_inflate+0x3a8>
    1d28:	e59b2010 	ldr	r2, [fp, #16]
    1d2c:	e59dc018 	ldr	ip, [sp, #24]
    1d30:	e152000c 	cmp	r2, ip
    1d34:	0a00047f 	beq	2f38 <zlib_inflate+0x159c>
    1d38:	e1a0000b 	mov	r0, fp
    1d3c:	e59d1018 	ldr	r1, [sp, #24]
    1d40:	ebfffbb2 	bl	c10 <zlib_updatewindow>
    1d44:	e59dc00c 	ldr	ip, [sp, #12]
    1d48:	e59b3004 	ldr	r3, [fp, #4]
    1d4c:	e59b1010 	ldr	r1, [fp, #16]
    1d50:	e063300c 	rsb	r3, r3, ip
    1d54:	e59dc018 	ldr	ip, [sp, #24]
    1d58:	e58d300c 	str	r3, [sp, #12]
    1d5c:	e59b2008 	ldr	r2, [fp, #8]
    1d60:	e061100c 	rsb	r1, r1, ip
    1d64:	e59b3014 	ldr	r3, [fp, #20]
    1d68:	e59d000c 	ldr	r0, [sp, #12]
    1d6c:	e0833001 	add	r3, r3, r1
    1d70:	e58b3014 	str	r3, [fp, #20]
    1d74:	e0822000 	add	r2, r2, r0
    1d78:	e58b2008 	str	r2, [fp, #8]
    1d7c:	e59a2008 	ldr	r2, [sl, #8]
    1d80:	e59a301c 	ldr	r3, [sl, #28]
    1d84:	e3520000 	cmp	r2, #0
    1d88:	e58d1008 	str	r1, [sp, #8]
    1d8c:	e0833001 	add	r3, r3, r1
    1d90:	e58a301c 	str	r3, [sl, #28]
    1d94:	0a000064 	beq	1f2c <zlib_inflate+0x590>
    1d98:	e3510000 	cmp	r1, #0
    1d9c:	0a000062 	beq	1f2c <zlib_inflate+0x590>
    1da0:	e59b600c 	ldr	r6, [fp, #12]
    1da4:	e59a2018 	ldr	r2, [sl, #24]
    1da8:	e0566001 	subs	r6, r6, r1
    1dac:	e6ff0072 	uxth	r0, r2
    1db0:	e1a02822 	lsr	r2, r2, #16
    1db4:	03a02001 	moveq	r2, #1
    1db8:	0a000059 	beq	1f24 <zlib_inflate+0x588>
    1dbc:	e3089071 	movw	r9, #32881	; 0x8071
    1dc0:	e3489007 	movt	r9, #32775	; 0x8007
    1dc4:	e1a08001 	mov	r8, r1
    1dc8:	e30155b0 	movw	r5, #5552	; 0x15b0
    1dcc:	e1580005 	cmp	r8, r5
    1dd0:	31a05008 	movcc	r5, r8
    1dd4:	e355000f 	cmp	r5, #15
    1dd8:	e1a03006 	mov	r3, r6
    1ddc:	e0658008 	rsb	r8, r5, r8
    1de0:	e1a01005 	mov	r1, r5
    1de4:	da000038 	ble	1ecc <zlib_inflate+0x530>
    1de8:	e5d37000 	ldrb	r7, [r3]
    1dec:	e2411010 	sub	r1, r1, #16
    1df0:	e5d3c001 	ldrb	ip, [r3, #1]
    1df4:	e351000f 	cmp	r1, #15
    1df8:	e0807007 	add	r7, r0, r7
    1dfc:	e5d30002 	ldrb	r0, [r3, #2]
    1e00:	e5d34003 	ldrb	r4, [r3, #3]
    1e04:	e087c00c 	add	ip, r7, ip
    1e08:	e08c7007 	add	r7, ip, r7
    1e0c:	e08cc000 	add	ip, ip, r0
    1e10:	e5d30004 	ldrb	r0, [r3, #4]
    1e14:	e087700c 	add	r7, r7, ip
    1e18:	e08cc004 	add	ip, ip, r4
    1e1c:	e5d34005 	ldrb	r4, [r3, #5]
    1e20:	e087700c 	add	r7, r7, ip
    1e24:	e08cc000 	add	ip, ip, r0
    1e28:	e5d30006 	ldrb	r0, [r3, #6]
    1e2c:	e087700c 	add	r7, r7, ip
    1e30:	e08cc004 	add	ip, ip, r4
    1e34:	e5d34007 	ldrb	r4, [r3, #7]
    1e38:	e087700c 	add	r7, r7, ip
    1e3c:	e08cc000 	add	ip, ip, r0
    1e40:	e5d30008 	ldrb	r0, [r3, #8]
    1e44:	e087700c 	add	r7, r7, ip
    1e48:	e08cc004 	add	ip, ip, r4
    1e4c:	e5d34009 	ldrb	r4, [r3, #9]
    1e50:	e087700c 	add	r7, r7, ip
    1e54:	e08cc000 	add	ip, ip, r0
    1e58:	e5d3000a 	ldrb	r0, [r3, #10]
    1e5c:	e087700c 	add	r7, r7, ip
    1e60:	e08cc004 	add	ip, ip, r4
    1e64:	e5d3400b 	ldrb	r4, [r3, #11]
    1e68:	e087700c 	add	r7, r7, ip
    1e6c:	e08cc000 	add	ip, ip, r0
    1e70:	e5d3000c 	ldrb	r0, [r3, #12]
    1e74:	e087700c 	add	r7, r7, ip
    1e78:	e08cc004 	add	ip, ip, r4
    1e7c:	e5d3400d 	ldrb	r4, [r3, #13]
    1e80:	e087700c 	add	r7, r7, ip
    1e84:	e08cc000 	add	ip, ip, r0
    1e88:	e5d3000e 	ldrb	r0, [r3, #14]
    1e8c:	e087700c 	add	r7, r7, ip
    1e90:	e08cc004 	add	ip, ip, r4
    1e94:	e5d3400f 	ldrb	r4, [r3, #15]
    1e98:	e08c0000 	add	r0, ip, r0
    1e9c:	e087700c 	add	r7, r7, ip
    1ea0:	e0877000 	add	r7, r7, r0
    1ea4:	e0800004 	add	r0, r0, r4
    1ea8:	e0877000 	add	r7, r7, r0
    1eac:	e2833010 	add	r3, r3, #16
    1eb0:	e0822007 	add	r2, r2, r7
    1eb4:	caffffcb 	bgt	1de8 <zlib_inflate+0x44c>
    1eb8:	e2455010 	sub	r5, r5, #16
    1ebc:	e1a01225 	lsr	r1, r5, #4
    1ec0:	e2813001 	add	r3, r1, #1
    1ec4:	e0451201 	sub	r1, r5, r1, lsl #4
    1ec8:	e0863203 	add	r3, r6, r3, lsl #4
    1ecc:	e3510000 	cmp	r1, #0
    1ed0:	01a06003 	moveq	r6, r3
    1ed4:	0a000005 	beq	1ef0 <zlib_inflate+0x554>
    1ed8:	e0836001 	add	r6, r3, r1
    1edc:	e4d31001 	ldrb	r1, [r3], #1
    1ee0:	e1530006 	cmp	r3, r6
    1ee4:	e0800001 	add	r0, r0, r1
    1ee8:	e0822000 	add	r2, r2, r0
    1eec:	1afffffa 	bne	1edc <zlib_inflate+0x540>
    1ef0:	e0813099 	umull	r3, r1, r9, r0
    1ef4:	e3580000 	cmp	r8, #0
    1ef8:	e083c299 	umull	ip, r3, r9, r2
    1efc:	e1a017a1 	lsr	r1, r1, #15
    1f00:	e061c601 	rsb	ip, r1, r1, lsl #12
    1f04:	e1a037a3 	lsr	r3, r3, #15
    1f08:	e081120c 	add	r1, r1, ip, lsl #4
    1f0c:	e063c603 	rsb	ip, r3, r3, lsl #12
    1f10:	e0610000 	rsb	r0, r1, r0
    1f14:	e083320c 	add	r3, r3, ip, lsl #4
    1f18:	e0632002 	rsb	r2, r3, r2
    1f1c:	1affffa9 	bne	1dc8 <zlib_inflate+0x42c>
    1f20:	e1802802 	orr	r2, r0, r2, lsl #16
    1f24:	e58a2018 	str	r2, [sl, #24]
    1f28:	e58b2028 	str	r2, [fp, #40]	; 0x28
    1f2c:	e89a000c 	ldm	sl, {r2, r3}
    1f30:	e59dc014 	ldr	ip, [sp, #20]
    1f34:	e3530000 	cmp	r3, #0
    1f38:	e59a1038 	ldr	r1, [sl, #56]	; 0x38
    1f3c:	13a03040 	movne	r3, #64	; 0x40
    1f40:	03a03000 	moveq	r3, #0
    1f44:	e352000b 	cmp	r2, #11
    1f48:	e0833001 	add	r3, r3, r1
    1f4c:	03a02080 	moveq	r2, #128	; 0x80
    1f50:	13a02000 	movne	r2, #0
    1f54:	e35c0000 	cmp	ip, #0
    1f58:	e0833002 	add	r3, r3, r2
    1f5c:	e58b3024 	str	r3, [fp, #36]	; 0x24
    1f60:	0a00000d 	beq	1f9c <zlib_inflate+0x600>
    1f64:	e59b3010 	ldr	r3, [fp, #16]
    1f68:	e3530000 	cmp	r3, #0
    1f6c:	0a00000a 	beq	1f9c <zlib_inflate+0x600>
    1f70:	e59b3004 	ldr	r3, [fp, #4]
    1f74:	e3530000 	cmp	r3, #0
    1f78:	1a000007 	bne	1f9c <zlib_inflate+0x600>
    1f7c:	e59b301c 	ldr	r3, [fp, #28]
    1f80:	e3530000 	cmp	r3, #0
    1f84:	0a0001fc 	beq	277c <zlib_inflate+0xde0>
    1f88:	e5932000 	ldr	r2, [r3]
    1f8c:	e352000d 	cmp	r2, #13
    1f90:	0a00026b 	beq	2944 <zlib_inflate+0xfa8>
    1f94:	e3e00002 	mvn	r0, #2
    1f98:	ea000007 	b	1fbc <zlib_inflate+0x620>
    1f9c:	e59d000c 	ldr	r0, [sp, #12]
    1fa0:	e59d1008 	ldr	r1, [sp, #8]
    1fa4:	e1900001 	orrs	r0, r0, r1
    1fa8:	0a000005 	beq	1fc4 <zlib_inflate+0x628>
    1fac:	e59dc024 	ldr	ip, [sp, #36]	; 0x24
    1fb0:	e35c0005 	cmp	ip, #5
    1fb4:	159d001c 	ldrne	r0, [sp, #28]
    1fb8:	0a000001 	beq	1fc4 <zlib_inflate+0x628>
    1fbc:	e28dd044 	add	sp, sp, #68	; 0x44
    1fc0:	e8bd8ff0 	pop	{r4, r5, r6, r7, r8, r9, sl, fp, pc}
    1fc4:	e59d2010 	ldr	r2, [sp, #16]
    1fc8:	e59d001c 	ldr	r0, [sp, #28]
    1fcc:	e3520000 	cmp	r2, #0
    1fd0:	13e00004 	mvnne	r0, #4
    1fd4:	e28dd044 	add	sp, sp, #68	; 0x44
    1fd8:	e8bd8ff0 	pop	{r4, r5, r6, r7, r8, r9, sl, fp, pc}
    1fdc:	e2042007 	and	r2, r4, #7
    1fe0:	e3a03018 	mov	r3, #24
    1fe4:	e1a08238 	lsr	r8, r8, r2
    1fe8:	e3c44007 	bic	r4, r4, #7
    1fec:	e58b3000 	str	r3, [fp]
    1ff0:	eafffe98 	b	1a58 <zlib_inflate+0xbc>
    1ff4:	e3570000 	cmp	r7, #0
    1ff8:	0affff30 	beq	1cc0 <zlib_inflate+0x324>
    1ffc:	e4d93001 	ldrb	r3, [r9], #1
    2000:	e2477001 	sub	r7, r7, #1
    2004:	e0888413 	add	r8, r8, r3, lsl r4
    2008:	e2844008 	add	r4, r4, #8
    200c:	e1540001 	cmp	r4, r1
    2010:	3afffff7 	bcc	1ff4 <zlib_inflate+0x658>
    2014:	e3e03000 	mvn	r3, #0
    2018:	e59b203c 	ldr	r2, [fp, #60]	; 0x3c
    201c:	e1c83113 	bic	r3, r8, r3, lsl r1
    2020:	e0614004 	rsb	r4, r1, r4
    2024:	e1a08138 	lsr	r8, r8, r1
    2028:	e0823003 	add	r3, r2, r3
    202c:	e58b303c 	str	r3, [fp, #60]	; 0x3c
    2030:	e3a03014 	mov	r3, #20
    2034:	e58b3000 	str	r3, [fp]
    2038:	e59b3054 	ldr	r3, [fp, #84]	; 0x54
    203c:	e3e05000 	mvn	r5, #0
    2040:	e59b204c 	ldr	r2, [fp, #76]	; 0x4c
    2044:	e1e05315 	mvn	r5, r5, lsl r3
    2048:	e0083005 	and	r3, r8, r5
    204c:	e0820103 	add	r0, r2, r3, lsl #2
    2050:	e7d21103 	ldrb	r1, [r2, r3, lsl #2]
    2054:	e5d03001 	ldrb	r3, [r0, #1]
    2058:	e1d000b2 	ldrh	r0, [r0, #2]
    205c:	e1540003 	cmp	r4, r3
    2060:	e1a0c003 	mov	ip, r3
    2064:	3a00000c 	bcc	209c <zlib_inflate+0x700>
    2068:	ea0001c5 	b	2784 <zlib_inflate+0xde8>
    206c:	e4d93001 	ldrb	r3, [r9], #1
    2070:	e2477001 	sub	r7, r7, #1
    2074:	e0888413 	add	r8, r8, r3, lsl r4
    2078:	e2844008 	add	r4, r4, #8
    207c:	e0083005 	and	r3, r8, r5
    2080:	e0820103 	add	r0, r2, r3, lsl #2
    2084:	e7d21103 	ldrb	r1, [r2, r3, lsl #2]
    2088:	e5d03001 	ldrb	r3, [r0, #1]
    208c:	e1d000b2 	ldrh	r0, [r0, #2]
    2090:	e1530004 	cmp	r3, r4
    2094:	e1a0c003 	mov	ip, r3
    2098:	9a0001b9 	bls	2784 <zlib_inflate+0xde8>
    209c:	e3570000 	cmp	r7, #0
    20a0:	1afffff1 	bne	206c <zlib_inflate+0x6d0>
    20a4:	eaffff05 	b	1cc0 <zlib_inflate+0x324>
    20a8:	e59b1044 	ldr	r1, [fp, #68]	; 0x44
    20ac:	e3510000 	cmp	r1, #0
    20b0:	1a000118 	bne	2518 <zlib_inflate+0xb7c>
    20b4:	e59b3040 	ldr	r3, [fp, #64]	; 0x40
    20b8:	e59dc018 	ldr	ip, [sp, #24]
    20bc:	e59b2028 	ldr	r2, [fp, #40]	; 0x28
    20c0:	e08c2002 	add	r2, ip, r2
    20c4:	e59dc008 	ldr	ip, [sp, #8]
    20c8:	e06c2002 	rsb	r2, ip, r2
    20cc:	e1520003 	cmp	r2, r3
    20d0:	3a0001e9 	bcc	287c <zlib_inflate+0xee0>
    20d4:	e3a03016 	mov	r3, #22
    20d8:	e58b3000 	str	r3, [fp]
    20dc:	e59dc008 	ldr	ip, [sp, #8]
    20e0:	e35c0000 	cmp	ip, #0
    20e4:	0afffef5 	beq	1cc0 <zlib_inflate+0x324>
    20e8:	e59dc018 	ldr	ip, [sp, #24]
    20ec:	e59d0008 	ldr	r0, [sp, #8]
    20f0:	e59b3040 	ldr	r3, [fp, #64]	; 0x40
    20f4:	e060200c 	rsb	r2, r0, ip
    20f8:	e1520003 	cmp	r2, r3
    20fc:	2a0001d6 	bcs	285c <zlib_inflate+0xec0>
    2100:	e59b102c 	ldr	r1, [fp, #44]	; 0x2c
    2104:	e0622003 	rsb	r2, r2, r3
    2108:	e59b003c 	ldr	r0, [fp, #60]	; 0x3c
    210c:	e1520001 	cmp	r2, r1
    2110:	80612002 	rsbhi	r2, r1, r2
    2114:	90621001 	rsbls	r1, r2, r1
    2118:	859b3024 	ldrhi	r3, [fp, #36]	; 0x24
    211c:	859b1030 	ldrhi	r1, [fp, #48]	; 0x30
    2120:	959b3030 	ldrls	r3, [fp, #48]	; 0x30
    2124:	80623003 	rsbhi	r3, r2, r3
    2128:	e1520000 	cmp	r2, r0
    212c:	21a02000 	movcs	r2, r0
    2130:	e0833001 	add	r3, r3, r1
    2134:	e59dc008 	ldr	ip, [sp, #8]
    2138:	e152000c 	cmp	r2, ip
    213c:	21a0200c 	movcs	r2, ip
    2140:	e062c00c 	rsb	ip, r2, ip
    2144:	e58dc008 	str	ip, [sp, #8]
    2148:	e59dc020 	ldr	ip, [sp, #32]
    214c:	e08c1002 	add	r1, ip, r2
    2150:	e0622000 	rsb	r2, r2, r0
    2154:	e58b203c 	str	r2, [fp, #60]	; 0x3c
    2158:	e1a0200c 	mov	r2, ip
    215c:	e4d30001 	ldrb	r0, [r3], #1
    2160:	e4c20001 	strb	r0, [r2], #1
    2164:	e1520001 	cmp	r2, r1
    2168:	1afffffb 	bne	215c <zlib_inflate+0x7c0>
    216c:	e59b303c 	ldr	r3, [fp, #60]	; 0x3c
    2170:	e58d2020 	str	r2, [sp, #32]
    2174:	e3530000 	cmp	r3, #0
    2178:	03a03012 	moveq	r3, #18
    217c:	159b3000 	ldrne	r3, [fp]
    2180:	058b3000 	streq	r3, [fp]
    2184:	eafffe33 	b	1a58 <zlib_inflate+0xbc>
    2188:	e1a0300a 	mov	r3, sl
    218c:	e3a0c000 	mov	ip, #0
    2190:	e1a0a00b 	mov	sl, fp
    2194:	e58dc014 	str	ip, [sp, #20]
    2198:	e1a0b003 	mov	fp, r3
    219c:	e58dc010 	str	ip, [sp, #16]
    21a0:	e3a03001 	mov	r3, #1
    21a4:	e58d301c 	str	r3, [sp, #28]
    21a8:	eafffed0 	b	1cf0 <zlib_inflate+0x354>
    21ac:	e59b3008 	ldr	r3, [fp, #8]
    21b0:	e3530000 	cmp	r3, #0
    21b4:	1a000006 	bne	21d4 <zlib_inflate+0x838>
    21b8:	ea0002c1 	b	2cc4 <zlib_inflate+0x1328>
    21bc:	e3570000 	cmp	r7, #0
    21c0:	0afffebe 	beq	1cc0 <zlib_inflate+0x324>
    21c4:	e4d93001 	ldrb	r3, [r9], #1
    21c8:	e2477001 	sub	r7, r7, #1
    21cc:	e0888413 	add	r8, r8, r3, lsl r4
    21d0:	e2844008 	add	r4, r4, #8
    21d4:	e354001f 	cmp	r4, #31
    21d8:	9afffff7 	bls	21bc <zlib_inflate+0x820>
    21dc:	e59dc018 	ldr	ip, [sp, #24]
    21e0:	e59d0008 	ldr	r0, [sp, #8]
    21e4:	e59a3014 	ldr	r3, [sl, #20]
    21e8:	e060100c 	rsb	r1, r0, ip
    21ec:	e0833001 	add	r3, r3, r1
    21f0:	e58a3014 	str	r3, [sl, #20]
    21f4:	e59b301c 	ldr	r3, [fp, #28]
    21f8:	e3510000 	cmp	r1, #0
    21fc:	e0833001 	add	r3, r3, r1
    2200:	e58b301c 	str	r3, [fp, #28]
    2204:	0a00006c 	beq	23bc <zlib_inflate+0xa20>
    2208:	e59dc020 	ldr	ip, [sp, #32]
    220c:	e59b2018 	ldr	r2, [fp, #24]
    2210:	e05c6001 	subs	r6, ip, r1
    2214:	e6ff0072 	uxth	r0, r2
    2218:	e1a02822 	lsr	r2, r2, #16
    221c:	03a02001 	moveq	r2, #1
    2220:	0a000063 	beq	23b4 <zlib_inflate+0xa18>
    2224:	e3083071 	movw	r3, #32881	; 0x8071
    2228:	e3483007 	movt	r3, #32775	; 0x8007
    222c:	e58d9018 	str	r9, [sp, #24]
    2230:	e58d8034 	str	r8, [sp, #52]	; 0x34
    2234:	e1a09003 	mov	r9, r3
    2238:	e1a08001 	mov	r8, r1
    223c:	e58d7030 	str	r7, [sp, #48]	; 0x30
    2240:	e58d4038 	str	r4, [sp, #56]	; 0x38
    2244:	e30175b0 	movw	r7, #5552	; 0x15b0
    2248:	e1580007 	cmp	r8, r7
    224c:	31a07008 	movcc	r7, r8
    2250:	e357000f 	cmp	r7, #15
    2254:	e0678008 	rsb	r8, r7, r8
    2258:	e1a03007 	mov	r3, r7
    225c:	da00020b 	ble	2a90 <zlib_inflate+0x10f4>
    2260:	e1a01007 	mov	r1, r7
    2264:	e1a03006 	mov	r3, r6
    2268:	e5d35000 	ldrb	r5, [r3]
    226c:	e2411010 	sub	r1, r1, #16
    2270:	e5d3c001 	ldrb	ip, [r3, #1]
    2274:	e351000f 	cmp	r1, #15
    2278:	e0805005 	add	r5, r0, r5
    227c:	e5d30002 	ldrb	r0, [r3, #2]
    2280:	e5d34003 	ldrb	r4, [r3, #3]
    2284:	e085c00c 	add	ip, r5, ip
    2288:	e08c5005 	add	r5, ip, r5
    228c:	e08cc000 	add	ip, ip, r0
    2290:	e5d30004 	ldrb	r0, [r3, #4]
    2294:	e085500c 	add	r5, r5, ip
    2298:	e08cc004 	add	ip, ip, r4
    229c:	e5d34005 	ldrb	r4, [r3, #5]
    22a0:	e085500c 	add	r5, r5, ip
    22a4:	e08cc000 	add	ip, ip, r0
    22a8:	e5d30006 	ldrb	r0, [r3, #6]
    22ac:	e085500c 	add	r5, r5, ip
    22b0:	e08cc004 	add	ip, ip, r4
    22b4:	e5d34007 	ldrb	r4, [r3, #7]
    22b8:	e085500c 	add	r5, r5, ip
    22bc:	e08cc000 	add	ip, ip, r0
    22c0:	e5d30008 	ldrb	r0, [r3, #8]
    22c4:	e085500c 	add	r5, r5, ip
    22c8:	e08cc004 	add	ip, ip, r4
    22cc:	e5d34009 	ldrb	r4, [r3, #9]
    22d0:	e085500c 	add	r5, r5, ip
    22d4:	e08cc000 	add	ip, ip, r0
    22d8:	e5d3000a 	ldrb	r0, [r3, #10]
    22dc:	e085500c 	add	r5, r5, ip
    22e0:	e08cc004 	add	ip, ip, r4
    22e4:	e5d3400b 	ldrb	r4, [r3, #11]
    22e8:	e085500c 	add	r5, r5, ip
    22ec:	e08cc000 	add	ip, ip, r0
    22f0:	e5d3000c 	ldrb	r0, [r3, #12]
    22f4:	e085500c 	add	r5, r5, ip
    22f8:	e08cc004 	add	ip, ip, r4
    22fc:	e5d3400d 	ldrb	r4, [r3, #13]
    2300:	e085500c 	add	r5, r5, ip
    2304:	e08cc000 	add	ip, ip, r0
    2308:	e5d3000e 	ldrb	r0, [r3, #14]
    230c:	e085500c 	add	r5, r5, ip
    2310:	e08cc004 	add	ip, ip, r4
    2314:	e5d3400f 	ldrb	r4, [r3, #15]
    2318:	e08c0000 	add	r0, ip, r0
    231c:	e085500c 	add	r5, r5, ip
    2320:	e0855000 	add	r5, r5, r0
    2324:	e0800004 	add	r0, r0, r4
    2328:	e0855000 	add	r5, r5, r0
    232c:	e2833010 	add	r3, r3, #16
    2330:	e0822005 	add	r2, r2, r5
    2334:	caffffcb 	bgt	2268 <zlib_inflate+0x8cc>
    2338:	e2477010 	sub	r7, r7, #16
    233c:	e1a03227 	lsr	r3, r7, #4
    2340:	e2831001 	add	r1, r3, #1
    2344:	e0473203 	sub	r3, r7, r3, lsl #4
    2348:	e0861201 	add	r1, r6, r1, lsl #4
    234c:	e3530000 	cmp	r3, #0
    2350:	01a06001 	moveq	r6, r1
    2354:	0a000005 	beq	2370 <zlib_inflate+0x9d4>
    2358:	e0816003 	add	r6, r1, r3
    235c:	e4d13001 	ldrb	r3, [r1], #1
    2360:	e1510006 	cmp	r1, r6
    2364:	e0800003 	add	r0, r0, r3
    2368:	e0822000 	add	r2, r2, r0
    236c:	1afffffa 	bne	235c <zlib_inflate+0x9c0>
    2370:	e0813099 	umull	r3, r1, r9, r0
    2374:	e3580000 	cmp	r8, #0
    2378:	e083c299 	umull	ip, r3, r9, r2
    237c:	e1a017a1 	lsr	r1, r1, #15
    2380:	e061c601 	rsb	ip, r1, r1, lsl #12
    2384:	e1a037a3 	lsr	r3, r3, #15
    2388:	e081120c 	add	r1, r1, ip, lsl #4
    238c:	e063c603 	rsb	ip, r3, r3, lsl #12
    2390:	e0610000 	rsb	r0, r1, r0
    2394:	e083320c 	add	r3, r3, ip, lsl #4
    2398:	e0632002 	rsb	r2, r3, r2
    239c:	1affffa8 	bne	2244 <zlib_inflate+0x8a8>
    23a0:	e59d9018 	ldr	r9, [sp, #24]
    23a4:	e1802802 	orr	r2, r0, r2, lsl #16
    23a8:	e59d7030 	ldr	r7, [sp, #48]	; 0x30
    23ac:	e59d8034 	ldr	r8, [sp, #52]	; 0x34
    23b0:	e59d4038 	ldr	r4, [sp, #56]	; 0x38
    23b4:	e58b2018 	str	r2, [fp, #24]
    23b8:	e58a2028 	str	r2, [sl, #40]	; 0x28
    23bc:	e1a01c28 	lsr	r1, r8, #24
    23c0:	e1a03428 	lsr	r3, r8, #8
    23c4:	e2033cff 	and	r3, r3, #65280	; 0xff00
    23c8:	e0811c08 	add	r1, r1, r8, lsl #24
    23cc:	e2082cff 	and	r2, r8, #65280	; 0xff00
    23d0:	e0811003 	add	r1, r1, r3
    23d4:	e59b3018 	ldr	r3, [fp, #24]
    23d8:	e0812402 	add	r2, r1, r2, lsl #8
    23dc:	e1520003 	cmp	r2, r3
    23e0:	0a0002dd 	beq	2f5c <zlib_inflate+0x15c0>
    23e4:	e59dc028 	ldr	ip, [sp, #40]	; 0x28
    23e8:	e3a0201b 	mov	r2, #27
    23ec:	e1a03002 	mov	r3, r2
    23f0:	e58ac018 	str	ip, [sl, #24]
    23f4:	e59dc008 	ldr	ip, [sp, #8]
    23f8:	e58b2000 	str	r2, [fp]
    23fc:	e58dc018 	str	ip, [sp, #24]
    2400:	eafffd94 	b	1a58 <zlib_inflate+0xbc>
    2404:	e3a03012 	mov	r3, #18
    2408:	e58b3000 	str	r3, [fp]
    240c:	e59dc008 	ldr	ip, [sp, #8]
    2410:	e3003101 	movw	r3, #257	; 0x101
    2414:	e3570005 	cmp	r7, #5
    2418:	815c0003 	cmphi	ip, r3
    241c:	8a000183 	bhi	2a30 <zlib_inflate+0x1094>
    2420:	e59b3050 	ldr	r3, [fp, #80]	; 0x50
    2424:	e3e0c000 	mvn	ip, #0
    2428:	e59b2048 	ldr	r2, [fp, #72]	; 0x48
    242c:	e1e0c31c 	mvn	ip, ip, lsl r3
    2430:	e008300c 	and	r3, r8, ip
    2434:	e0820103 	add	r0, r2, r3, lsl #2
    2438:	e7d21103 	ldrb	r1, [r2, r3, lsl #2]
    243c:	e5d03001 	ldrb	r3, [r0, #1]
    2440:	e1d000b2 	ldrh	r0, [r0, #2]
    2444:	e1540003 	cmp	r4, r3
    2448:	3a00000b 	bcc	247c <zlib_inflate+0xae0>
    244c:	ea000142 	b	295c <zlib_inflate+0xfc0>
    2450:	e4d93001 	ldrb	r3, [r9], #1
    2454:	e2477001 	sub	r7, r7, #1
    2458:	e0888413 	add	r8, r8, r3, lsl r4
    245c:	e2844008 	add	r4, r4, #8
    2460:	e008300c 	and	r3, r8, ip
    2464:	e0820103 	add	r0, r2, r3, lsl #2
    2468:	e7d21103 	ldrb	r1, [r2, r3, lsl #2]
    246c:	e5d03001 	ldrb	r3, [r0, #1]
    2470:	e1d000b2 	ldrh	r0, [r0, #2]
    2474:	e1530004 	cmp	r3, r4
    2478:	9a000137 	bls	295c <zlib_inflate+0xfc0>
    247c:	e3570000 	cmp	r7, #0
    2480:	1afffff2 	bne	2450 <zlib_inflate+0xab4>
    2484:	eafffe0d 	b	1cc0 <zlib_inflate+0x324>
    2488:	e59b1044 	ldr	r1, [fp, #68]	; 0x44
    248c:	e3510000 	cmp	r1, #0
    2490:	0afffee6 	beq	2030 <zlib_inflate+0x694>
    2494:	eafffedc 	b	200c <zlib_inflate+0x670>
    2498:	e1a0300a 	mov	r3, sl
    249c:	e3a0c000 	mov	ip, #0
    24a0:	e1a0a00b 	mov	sl, fp
    24a4:	e58dc014 	str	ip, [sp, #20]
    24a8:	e1a0b003 	mov	fp, r3
    24ac:	e58dc010 	str	ip, [sp, #16]
    24b0:	e3e03002 	mvn	r3, #2
    24b4:	e58d301c 	str	r3, [sp, #28]
    24b8:	eafffe0c 	b	1cf0 <zlib_inflate+0x354>
    24bc:	e3e00003 	mvn	r0, #3
    24c0:	eafffebd 	b	1fbc <zlib_inflate+0x620>
    24c4:	e59dc008 	ldr	ip, [sp, #8]
    24c8:	e35c0000 	cmp	ip, #0
    24cc:	0afffdfb 	beq	1cc0 <zlib_inflate+0x324>
    24d0:	e59dc008 	ldr	ip, [sp, #8]
    24d4:	e3a02012 	mov	r2, #18
    24d8:	e59b103c 	ldr	r1, [fp, #60]	; 0x3c
    24dc:	e1a03002 	mov	r3, r2
    24e0:	e24cc001 	sub	ip, ip, #1
    24e4:	e58dc008 	str	ip, [sp, #8]
    24e8:	e59dc020 	ldr	ip, [sp, #32]
    24ec:	e28cc001 	add	ip, ip, #1
    24f0:	e54c1001 	strb	r1, [ip, #-1]
    24f4:	e58dc020 	str	ip, [sp, #32]
    24f8:	e58b2000 	str	r2, [fp]
    24fc:	eafffd55 	b	1a58 <zlib_inflate+0xbc>
    2500:	e3570000 	cmp	r7, #0
    2504:	0afffded 	beq	1cc0 <zlib_inflate+0x324>
    2508:	e4d93001 	ldrb	r3, [r9], #1
    250c:	e2477001 	sub	r7, r7, #1
    2510:	e0888413 	add	r8, r8, r3, lsl r4
    2514:	e2844008 	add	r4, r4, #8
    2518:	e1540001 	cmp	r4, r1
    251c:	3afffff7 	bcc	2500 <zlib_inflate+0xb64>
    2520:	e59b3040 	ldr	r3, [fp, #64]	; 0x40
    2524:	e3e02000 	mvn	r2, #0
    2528:	e1c82112 	bic	r2, r8, r2, lsl r1
    252c:	e0614004 	rsb	r4, r1, r4
    2530:	e0823003 	add	r3, r2, r3
    2534:	e1a08138 	lsr	r8, r8, r1
    2538:	e58b3040 	str	r3, [fp, #64]	; 0x40
    253c:	eafffedd 	b	20b8 <zlib_inflate+0x71c>
    2540:	e2043007 	and	r3, r4, #7
    2544:	e3c44007 	bic	r4, r4, #7
    2548:	e354001f 	cmp	r4, #31
    254c:	e1a08338 	lsr	r8, r8, r3
    2550:	9a000006 	bls	2570 <zlib_inflate+0xbd4>
    2554:	ea0000e6 	b	28f4 <zlib_inflate+0xf58>
    2558:	e4d93001 	ldrb	r3, [r9], #1
    255c:	e2477001 	sub	r7, r7, #1
    2560:	e0888413 	add	r8, r8, r3, lsl r4
    2564:	e2844008 	add	r4, r4, #8
    2568:	e354001f 	cmp	r4, #31
    256c:	8a0000e0 	bhi	28f4 <zlib_inflate+0xf58>
    2570:	e3570000 	cmp	r7, #0
    2574:	1afffff7 	bne	2558 <zlib_inflate+0xbbc>
    2578:	eafffdd0 	b	1cc0 <zlib_inflate+0x324>
    257c:	e59b303c 	ldr	r3, [fp, #60]	; 0x3c
    2580:	e3530000 	cmp	r3, #0
    2584:	0a0000b9 	beq	2870 <zlib_inflate+0xed4>
    2588:	e59d5008 	ldr	r5, [sp, #8]
    258c:	e1570003 	cmp	r7, r3
    2590:	31a03007 	movcc	r3, r7
    2594:	e1530005 	cmp	r3, r5
    2598:	31a05003 	movcc	r5, r3
    259c:	e3550000 	cmp	r5, #0
    25a0:	0afffdc6 	beq	1cc0 <zlib_inflate+0x324>
    25a4:	e1a01009 	mov	r1, r9
    25a8:	e1a02005 	mov	r2, r5
    25ac:	e59d0020 	ldr	r0, [sp, #32]
    25b0:	e0657007 	rsb	r7, r5, r7
    25b4:	eb0003cf 	bl	34f8 <memcpy>
    25b8:	e59dc008 	ldr	ip, [sp, #8]
    25bc:	e59b303c 	ldr	r3, [fp, #60]	; 0x3c
    25c0:	e0899005 	add	r9, r9, r5
    25c4:	e065c00c 	rsb	ip, r5, ip
    25c8:	e58dc008 	str	ip, [sp, #8]
    25cc:	e59dc020 	ldr	ip, [sp, #32]
    25d0:	e08cc005 	add	ip, ip, r5
    25d4:	e0655003 	rsb	r5, r5, r3
    25d8:	e58dc020 	str	ip, [sp, #32]
    25dc:	e59b3000 	ldr	r3, [fp]
    25e0:	e58b503c 	str	r5, [fp, #60]	; 0x3c
    25e4:	eafffd1b 	b	1a58 <zlib_inflate+0xbc>
    25e8:	e59b1058 	ldr	r1, [fp, #88]	; 0x58
    25ec:	e59b2064 	ldr	r2, [fp, #100]	; 0x64
    25f0:	e1510002 	cmp	r1, r2
    25f4:	9a000014 	bls	264c <zlib_inflate+0xcb0>
    25f8:	e2420001 	sub	r0, r2, #1
    25fc:	e59dc014 	ldr	ip, [sp, #20]
    2600:	e08c0080 	add	r0, ip, r0, lsl #1
    2604:	e3540002 	cmp	r4, #2
    2608:	e2822001 	add	r2, r2, #1
    260c:	8a000005 	bhi	2628 <zlib_inflate+0xc8c>
    2610:	e3570000 	cmp	r7, #0
    2614:	0afffda9 	beq	1cc0 <zlib_inflate+0x324>
    2618:	e4d93001 	ldrb	r3, [r9], #1
    261c:	e2477001 	sub	r7, r7, #1
    2620:	e0888413 	add	r8, r8, r3, lsl r4
    2624:	e2844008 	add	r4, r4, #8
    2628:	e58b2064 	str	r2, [fp, #100]	; 0x64
    262c:	e1520001 	cmp	r2, r1
    2630:	e1f030b2 	ldrh	r3, [r0, #2]!
    2634:	e208c007 	and	ip, r8, #7
    2638:	e2444003 	sub	r4, r4, #3
    263c:	e1a081a8 	lsr	r8, r8, #3
    2640:	e08b3083 	add	r3, fp, r3, lsl #1
    2644:	e1c3c6bc 	strh	ip, [r3, #108]	; 0x6c
    2648:	3affffed 	bcc	2604 <zlib_inflate+0xc68>
    264c:	e3520012 	cmp	r2, #18
    2650:	8a00000c 	bhi	2688 <zlib_inflate+0xcec>
    2654:	e2423001 	sub	r3, r2, #1
    2658:	e59dc010 	ldr	ip, [sp, #16]
    265c:	e59d002c 	ldr	r0, [sp, #44]	; 0x2c
    2660:	e3a01000 	mov	r1, #0
    2664:	e08c3083 	add	r3, ip, r3, lsl #1
    2668:	e1f320b2 	ldrh	r2, [r3, #2]!
    266c:	e2822034 	add	r2, r2, #52	; 0x34
    2670:	e1530000 	cmp	r3, r0
    2674:	e08b2082 	add	r2, fp, r2, lsl #1
    2678:	e1c210b4 	strh	r1, [r2, #4]
    267c:	1afffff9 	bne	2668 <zlib_inflate+0xccc>
    2680:	e3a03013 	mov	r3, #19
    2684:	e58b3064 	str	r3, [fp, #100]	; 0x64
    2688:	e28b3e52 	add	r3, fp, #1312	; 0x520
    268c:	e3a02007 	mov	r2, #7
    2690:	e283300c 	add	r3, r3, #12
    2694:	e58b2050 	str	r2, [fp, #80]	; 0x50
    2698:	e58b3068 	str	r3, [fp, #104]	; 0x68
    269c:	e28b2050 	add	r2, fp, #80	; 0x50
    26a0:	e58b3048 	str	r3, [fp, #72]	; 0x48
    26a4:	e3a00000 	mov	r0, #0
    26a8:	e28b3fbb 	add	r3, fp, #748	; 0x2ec
    26ac:	e58d2000 	str	r2, [sp]
    26b0:	e58d3004 	str	r3, [sp, #4]
    26b4:	e28b106c 	add	r1, fp, #108	; 0x6c
    26b8:	e3a02013 	mov	r2, #19
    26bc:	e28b3068 	add	r3, fp, #104	; 0x68
    26c0:	ebfff984 	bl	cd8 <zlib_inflate_table>
    26c4:	e3500000 	cmp	r0, #0
    26c8:	e58d001c 	str	r0, [sp, #28]
    26cc:	0a000149 	beq	2bf8 <zlib_inflate+0x125c>
    26d0:	e59f131c 	ldr	r1, [pc, #796]	; 29f4 <zlib_inflate+0x1058>
    26d4:	e3a0201b 	mov	r2, #27
    26d8:	e1a03002 	mov	r3, r2
    26dc:	e08f1001 	add	r1, pc, r1
    26e0:	e58a1018 	str	r1, [sl, #24]
    26e4:	e58b2000 	str	r2, [fp]
    26e8:	eafffcda 	b	1a58 <zlib_inflate+0xbc>
    26ec:	e59b3008 	ldr	r3, [fp, #8]
    26f0:	e3530000 	cmp	r3, #0
    26f4:	1a000008 	bne	271c <zlib_inflate+0xd80>
    26f8:	e3a0300c 	mov	r3, #12
    26fc:	e58b3000 	str	r3, [fp]
    2700:	eafffcd4 	b	1a58 <zlib_inflate+0xbc>
    2704:	e3570000 	cmp	r7, #0
    2708:	0afffd6c 	beq	1cc0 <zlib_inflate+0x324>
    270c:	e4d93001 	ldrb	r3, [r9], #1
    2710:	e2477001 	sub	r7, r7, #1
    2714:	e0888413 	add	r8, r8, r3, lsl r4
    2718:	e2844008 	add	r4, r4, #8
    271c:	e354000f 	cmp	r4, #15
    2720:	9afffff7 	bls	2704 <zlib_inflate+0xd68>
    2724:	e1a03408 	lsl	r3, r8, #8
    2728:	e3012085 	movw	r2, #4229	; 0x1085
    272c:	e3402842 	movt	r2, #2114	; 0x842
    2730:	e6ff3073 	uxth	r3, r3
    2734:	e0833428 	add	r3, r3, r8, lsr #8
    2738:	e0820392 	umull	r0, r2, r2, r3
    273c:	e0621003 	rsb	r1, r2, r3
    2740:	e08220a1 	add	r2, r2, r1, lsr #1
    2744:	e1a02222 	lsr	r2, r2, #4
    2748:	e0622282 	rsb	r2, r2, r2, lsl #5
    274c:	e0533002 	subs	r3, r3, r2
    2750:	0a0000e6 	beq	2af0 <zlib_inflate+0x1154>
    2754:	e59f129c 	ldr	r1, [pc, #668]	; 29f8 <zlib_inflate+0x105c>
    2758:	e3a0201b 	mov	r2, #27
    275c:	e1a03002 	mov	r3, r2
    2760:	e08f1001 	add	r1, pc, r1
    2764:	e58a1018 	str	r1, [sl, #24]
    2768:	e58b2000 	str	r2, [fp]
    276c:	eafffcb9 	b	1a58 <zlib_inflate+0xbc>
    2770:	e59b3004 	ldr	r3, [fp, #4]
    2774:	e3530000 	cmp	r3, #0
    2778:	0afffc92 	beq	19c8 <zlib_inflate+0x2c>
    277c:	e3e00001 	mvn	r0, #1
    2780:	eafffe0d 	b	1fbc <zlib_inflate+0x620>
    2784:	e31100f0 	tst	r1, #240	; 0xf0
    2788:	1a000028 	bne	2830 <zlib_inflate+0xe94>
    278c:	e0831001 	add	r1, r3, r1
    2790:	e1a05003 	mov	r5, r3
    2794:	e3e03000 	mvn	r3, #0
    2798:	e58d0034 	str	r0, [sp, #52]	; 0x34
    279c:	e1e03113 	mvn	r3, r3, lsl r1
    27a0:	e58d3030 	str	r3, [sp, #48]	; 0x30
    27a4:	e0033008 	and	r3, r3, r8
    27a8:	e0803533 	add	r3, r0, r3, lsr r5
    27ac:	e0820103 	add	r0, r2, r3, lsl #2
    27b0:	e7d21103 	ldrb	r1, [r2, r3, lsl #2]
    27b4:	e5d03001 	ldrb	r3, [r0, #1]
    27b8:	e1d000b2 	ldrh	r0, [r0, #2]
    27bc:	e0856003 	add	r6, r5, r3
    27c0:	e1540006 	cmp	r4, r6
    27c4:	2a000017 	bcs	2828 <zlib_inflate+0xe8c>
    27c8:	e3570000 	cmp	r7, #0
    27cc:	0afffd3b 	beq	1cc0 <zlib_inflate+0x324>
    27d0:	e58db038 	str	fp, [sp, #56]	; 0x38
    27d4:	e58dc03c 	str	ip, [sp, #60]	; 0x3c
    27d8:	e59d6030 	ldr	r6, [sp, #48]	; 0x30
    27dc:	e59db034 	ldr	fp, [sp, #52]	; 0x34
    27e0:	ea000001 	b	27ec <zlib_inflate+0xe50>
    27e4:	e3570000 	cmp	r7, #0
    27e8:	0a0000a5 	beq	2a84 <zlib_inflate+0x10e8>
    27ec:	e4d93001 	ldrb	r3, [r9], #1
    27f0:	e2477001 	sub	r7, r7, #1
    27f4:	e0888413 	add	r8, r8, r3, lsl r4
    27f8:	e2844008 	add	r4, r4, #8
    27fc:	e0083006 	and	r3, r8, r6
    2800:	e08b3533 	add	r3, fp, r3, lsr r5
    2804:	e0820103 	add	r0, r2, r3, lsl #2
    2808:	e7d21103 	ldrb	r1, [r2, r3, lsl #2]
    280c:	e5d03001 	ldrb	r3, [r0, #1]
    2810:	e1d000b2 	ldrh	r0, [r0, #2]
    2814:	e083c005 	add	ip, r3, r5
    2818:	e15c0004 	cmp	ip, r4
    281c:	8afffff0 	bhi	27e4 <zlib_inflate+0xe48>
    2820:	e59db038 	ldr	fp, [sp, #56]	; 0x38
    2824:	e59dc03c 	ldr	ip, [sp, #60]	; 0x3c
    2828:	e1a08538 	lsr	r8, r8, r5
    282c:	e06c4004 	rsb	r4, ip, r4
    2830:	e3110040 	tst	r1, #64	; 0x40
    2834:	e1a08338 	lsr	r8, r8, r3
    2838:	e0634004 	rsb	r4, r3, r4
    283c:	0a000015 	beq	2898 <zlib_inflate+0xefc>
    2840:	e59f11b4 	ldr	r1, [pc, #436]	; 29fc <zlib_inflate+0x1060>
    2844:	e3a0201b 	mov	r2, #27
    2848:	e1a03002 	mov	r3, r2
    284c:	e08f1001 	add	r1, pc, r1
    2850:	e58a1018 	str	r1, [sl, #24]
    2854:	e58b2000 	str	r2, [fp]
    2858:	eafffc7e 	b	1a58 <zlib_inflate+0xbc>
    285c:	e59b203c 	ldr	r2, [fp, #60]	; 0x3c
    2860:	e59dc020 	ldr	ip, [sp, #32]
    2864:	e1a00002 	mov	r0, r2
    2868:	e063300c 	rsb	r3, r3, ip
    286c:	eafffe30 	b	2134 <zlib_inflate+0x798>
    2870:	e3a0300b 	mov	r3, #11
    2874:	e58b3000 	str	r3, [fp]
    2878:	eafffc76 	b	1a58 <zlib_inflate+0xbc>
    287c:	e59f117c 	ldr	r1, [pc, #380]	; 2a00 <zlib_inflate+0x1064>
    2880:	e3a0201b 	mov	r2, #27
    2884:	e1a03002 	mov	r3, r2
    2888:	e08f1001 	add	r1, pc, r1
    288c:	e58a1018 	str	r1, [sl, #24]
    2890:	e58b2000 	str	r2, [fp]
    2894:	eafffc6f 	b	1a58 <zlib_inflate+0xbc>
    2898:	e201100f 	and	r1, r1, #15
    289c:	e3a03015 	mov	r3, #21
    28a0:	e58b0040 	str	r0, [fp, #64]	; 0x40
    28a4:	e58b1044 	str	r1, [fp, #68]	; 0x44
    28a8:	e58b3000 	str	r3, [fp]
    28ac:	eafffdfe 	b	20ac <zlib_inflate+0x710>
    28b0:	e59f014c 	ldr	r0, [pc, #332]	; 2a04 <zlib_inflate+0x1068>
    28b4:	e3a0101b 	mov	r1, #27
    28b8:	e1a03001 	mov	r3, r1
    28bc:	e08f0000 	add	r0, pc, r0
    28c0:	e58a0018 	str	r0, [sl, #24]
    28c4:	e58b1000 	str	r1, [fp]
    28c8:	eafffcb9 	b	1bb4 <zlib_inflate+0x218>
    28cc:	e59d201c 	ldr	r2, [sp, #28]
    28d0:	e1a0300a 	mov	r3, sl
    28d4:	e1a0a00b 	mov	sl, fp
    28d8:	e1a0b003 	mov	fp, r3
    28dc:	e2722001 	rsbs	r2, r2, #1
    28e0:	e3a03000 	mov	r3, #0
    28e4:	e58d3014 	str	r3, [sp, #20]
    28e8:	33a02000 	movcc	r2, #0
    28ec:	e58d2010 	str	r2, [sp, #16]
    28f0:	eafffcfe 	b	1cf0 <zlib_inflate+0x354>
    28f4:	e1a03828 	lsr	r3, r8, #16
    28f8:	e6ff2078 	uxth	r2, r8
    28fc:	e2233cff 	eor	r3, r3, #65280	; 0xff00
    2900:	e22330ff 	eor	r3, r3, #255	; 0xff
    2904:	e1520003 	cmp	r2, r3
    2908:	0a000082 	beq	2b18 <zlib_inflate+0x117c>
    290c:	e59f10f4 	ldr	r1, [pc, #244]	; 2a08 <zlib_inflate+0x106c>
    2910:	e3a0201b 	mov	r2, #27
    2914:	e1a03002 	mov	r3, r2
    2918:	e08f1001 	add	r1, pc, r1
    291c:	e58a1018 	str	r1, [sl, #24]
    2920:	e58b2000 	str	r2, [fp]
    2924:	eafffc4b 	b	1a58 <zlib_inflate+0xbc>
    2928:	e59f10dc 	ldr	r1, [pc, #220]	; 2a0c <zlib_inflate+0x1070>
    292c:	e3a0201b 	mov	r2, #27
    2930:	e1a03002 	mov	r3, r2
    2934:	e08f1001 	add	r1, pc, r1
    2938:	e58a1018 	str	r1, [sl, #24]
    293c:	e58b2000 	str	r2, [fp]
    2940:	eafffc44 	b	1a58 <zlib_inflate+0xbc>
    2944:	e5930038 	ldr	r0, [r3, #56]	; 0x38
    2948:	e3500000 	cmp	r0, #0
    294c:	03a0200b 	moveq	r2, #11
    2950:	05832000 	streq	r2, [r3]
    2954:	0afffd98 	beq	1fbc <zlib_inflate+0x620>
    2958:	eafffd8d 	b	1f94 <zlib_inflate+0x5f8>
    295c:	e3510000 	cmp	r1, #0
    2960:	0a00005c 	beq	2ad8 <zlib_inflate+0x113c>
    2964:	e31100f0 	tst	r1, #240	; 0xf0
    2968:	1a000071 	bne	2b34 <zlib_inflate+0x1198>
    296c:	e0831001 	add	r1, r3, r1
    2970:	e3e0c000 	mvn	ip, #0
    2974:	e1e0c11c 	mvn	ip, ip, lsl r1
    2978:	e00c1008 	and	r1, ip, r8
    297c:	e58dc030 	str	ip, [sp, #48]	; 0x30
    2980:	e0801331 	add	r1, r0, r1, lsr r3
    2984:	e0825101 	add	r5, r2, r1, lsl #2
    2988:	e7d21101 	ldrb	r1, [r2, r1, lsl #2]
    298c:	e5d5c001 	ldrb	ip, [r5, #1]
    2990:	e1d560b2 	ldrh	r6, [r5, #2]
    2994:	e083500c 	add	r5, r3, ip
    2998:	e1540005 	cmp	r4, r5
    299c:	3a00000e 	bcc	29dc <zlib_inflate+0x1040>
    29a0:	ea00007e 	b	2ba0 <zlib_inflate+0x1204>
    29a4:	e4d91001 	ldrb	r1, [r9], #1
    29a8:	e2477001 	sub	r7, r7, #1
    29ac:	e59dc030 	ldr	ip, [sp, #48]	; 0x30
    29b0:	e0888411 	add	r8, r8, r1, lsl r4
    29b4:	e2844008 	add	r4, r4, #8
    29b8:	e008100c 	and	r1, r8, ip
    29bc:	e0801331 	add	r1, r0, r1, lsr r3
    29c0:	e0825101 	add	r5, r2, r1, lsl #2
    29c4:	e7d21101 	ldrb	r1, [r2, r1, lsl #2]
    29c8:	e5d5c001 	ldrb	ip, [r5, #1]
    29cc:	e1d560b2 	ldrh	r6, [r5, #2]
    29d0:	e08c5003 	add	r5, ip, r3
    29d4:	e1550004 	cmp	r5, r4
    29d8:	9a000070 	bls	2ba0 <zlib_inflate+0x1204>
    29dc:	e3570000 	cmp	r7, #0
    29e0:	1affffef 	bne	29a4 <zlib_inflate+0x1008>
    29e4:	eafffcb5 	b	1cc0 <zlib_inflate+0x324>
    29e8:	00003fcc 	.word	0x00003fcc
    29ec:	00003fb0 	.word	0x00003fb0
    29f0:	00004b34 	.word	0x00004b34
    29f4:	00003e3c 	.word	0x00003e3c
    29f8:	00003d18 	.word	0x00003d18
    29fc:	00003bf8 	.word	0x00003bf8
    2a00:	00003b9c 	.word	0x00003b9c
    2a04:	00003c04 	.word	0x00003c04
    2a08:	00003bbc 	.word	0x00003bbc
    2a0c:	00003bc0 	.word	0x00003bc0
    2a10:	00002f24 	.word	0x00002f24
    2a14:	00003988 	.word	0x00003988
    2a18:	00003900 	.word	0x00003900
    2a1c:	000038c4 	.word	0x000038c4
    2a20:	0000389c 	.word	0x0000389c
    2a24:	00003688 	.word	0x00003688
    2a28:	0000366c 	.word	0x0000366c
    2a2c:	00003644 	.word	0x00003644
    2a30:	e59dc020 	ldr	ip, [sp, #32]
    2a34:	e1a0000a 	mov	r0, sl
    2a38:	e58a9000 	str	r9, [sl]
    2a3c:	e58a7004 	str	r7, [sl, #4]
    2a40:	e58ac00c 	str	ip, [sl, #12]
    2a44:	e59dc008 	ldr	ip, [sp, #8]
    2a48:	e59d1018 	ldr	r1, [sp, #24]
    2a4c:	e58ac010 	str	ip, [sl, #16]
    2a50:	e58b8034 	str	r8, [fp, #52]	; 0x34
    2a54:	e58b4038 	str	r4, [fp, #56]	; 0x38
    2a58:	ebfffa0c 	bl	1290 <inflate_fast>
    2a5c:	e59ac00c 	ldr	ip, [sl, #12]
    2a60:	e59a9000 	ldr	r9, [sl]
    2a64:	e59a7004 	ldr	r7, [sl, #4]
    2a68:	e58dc020 	str	ip, [sp, #32]
    2a6c:	e59ac010 	ldr	ip, [sl, #16]
    2a70:	e59b8034 	ldr	r8, [fp, #52]	; 0x34
    2a74:	e59b4038 	ldr	r4, [fp, #56]	; 0x38
    2a78:	e58dc008 	str	ip, [sp, #8]
    2a7c:	e59b3000 	ldr	r3, [fp]
    2a80:	eafffbf4 	b	1a58 <zlib_inflate+0xbc>
    2a84:	e1a0b00a 	mov	fp, sl
    2a88:	e59da038 	ldr	sl, [sp, #56]	; 0x38
    2a8c:	eafffc8e 	b	1ccc <zlib_inflate+0x330>
    2a90:	e1a01006 	mov	r1, r6
    2a94:	eafffe2c 	b	234c <zlib_inflate+0x9b0>
    2a98:	e51f1090 	ldr	r1, [pc, #-144]	; 2a10 <zlib_inflate+0x1074>
    2a9c:	e3a03012 	mov	r3, #18
    2aa0:	e58b3000 	str	r3, [fp]
    2aa4:	e08f1001 	add	r1, pc, r1
    2aa8:	e2810c01 	add	r0, r1, #256	; 0x100
    2aac:	e2811c09 	add	r1, r1, #2304	; 0x900
    2ab0:	e58b0048 	str	r0, [fp, #72]	; 0x48
    2ab4:	e3a00009 	mov	r0, #9
    2ab8:	e58b104c 	str	r1, [fp, #76]	; 0x4c
    2abc:	e3a01005 	mov	r1, #5
    2ac0:	e58b0050 	str	r0, [fp, #80]	; 0x50
    2ac4:	e58b1054 	str	r1, [fp, #84]	; 0x54
    2ac8:	eafffc39 	b	1bb4 <zlib_inflate+0x218>
    2acc:	e3a0300f 	mov	r3, #15
    2ad0:	e58b3000 	str	r3, [fp]
    2ad4:	eafffc36 	b	1bb4 <zlib_inflate+0x218>
    2ad8:	e1a08338 	lsr	r8, r8, r3
    2adc:	e0634004 	rsb	r4, r3, r4
    2ae0:	e58b003c 	str	r0, [fp, #60]	; 0x3c
    2ae4:	e3a03017 	mov	r3, #23
    2ae8:	e58b3000 	str	r3, [fp]
    2aec:	eafffbd9 	b	1a58 <zlib_inflate+0xbc>
    2af0:	e208200f 	and	r2, r8, #15
    2af4:	e3520008 	cmp	r2, #8
    2af8:	0a000030 	beq	2bc0 <zlib_inflate+0x1224>
    2afc:	e51f10f0 	ldr	r1, [pc, #-240]	; 2a14 <zlib_inflate+0x1078>
    2b00:	e3a0201b 	mov	r2, #27
    2b04:	e1a03002 	mov	r3, r2
    2b08:	e08f1001 	add	r1, pc, r1
    2b0c:	e58a1018 	str	r1, [sl, #24]
    2b10:	e58b2000 	str	r2, [fp]
    2b14:	eafffbcf 	b	1a58 <zlib_inflate+0xbc>
    2b18:	e3a04000 	mov	r4, #0
    2b1c:	e1a03002 	mov	r3, r2
    2b20:	e58b203c 	str	r2, [fp, #60]	; 0x3c
    2b24:	e1a08004 	mov	r8, r4
    2b28:	e3a0200e 	mov	r2, #14
    2b2c:	e58b2000 	str	r2, [fp]
    2b30:	eafffe92 	b	2580 <zlib_inflate+0xbe4>
    2b34:	e1a08338 	lsr	r8, r8, r3
    2b38:	e0634004 	rsb	r4, r3, r4
    2b3c:	e58b003c 	str	r0, [fp, #60]	; 0x3c
    2b40:	e3110020 	tst	r1, #32
    2b44:	1affff49 	bne	2870 <zlib_inflate+0xed4>
    2b48:	e3110040 	tst	r1, #64	; 0x40
    2b4c:	0a00002e 	beq	2c0c <zlib_inflate+0x1270>
    2b50:	e51f1140 	ldr	r1, [pc, #-320]	; 2a18 <zlib_inflate+0x107c>
    2b54:	e3a0201b 	mov	r2, #27
    2b58:	e1a03002 	mov	r3, r2
    2b5c:	e08f1001 	add	r1, pc, r1
    2b60:	e58a1018 	str	r1, [sl, #24]
    2b64:	e58b2000 	str	r2, [fp]
    2b68:	eafffbba 	b	1a58 <zlib_inflate+0xbc>
    2b6c:	e59dc01c 	ldr	ip, [sp, #28]
    2b70:	e1a0300a 	mov	r3, sl
    2b74:	e59d0024 	ldr	r0, [sp, #36]	; 0x24
    2b78:	e1a0a00b 	mov	sl, fp
    2b7c:	e27cc001 	rsbs	ip, ip, #1
    2b80:	e1a0b003 	mov	fp, r3
    2b84:	33a0c000 	movcc	ip, #0
    2b88:	e58dc010 	str	ip, [sp, #16]
    2b8c:	e3500002 	cmp	r0, #2
    2b90:	13a0c000 	movne	ip, #0
    2b94:	020cc001 	andeq	ip, ip, #1
    2b98:	e58dc014 	str	ip, [sp, #20]
    2b9c:	eafffc53 	b	1cf0 <zlib_inflate+0x354>
    2ba0:	e1a08338 	lsr	r8, r8, r3
    2ba4:	e3510000 	cmp	r1, #0
    2ba8:	e0634004 	rsb	r4, r3, r4
    2bac:	e58b603c 	str	r6, [fp, #60]	; 0x3c
    2bb0:	e1a08c38 	lsr	r8, r8, ip
    2bb4:	e06c4004 	rsb	r4, ip, r4
    2bb8:	1affffe0 	bne	2b40 <zlib_inflate+0x11a4>
    2bbc:	eaffffc8 	b	2ae4 <zlib_inflate+0x1148>
    2bc0:	e1a08228 	lsr	r8, r8, #4
    2bc4:	e59b2020 	ldr	r2, [fp, #32]
    2bc8:	e208000f 	and	r0, r8, #15
    2bcc:	e2800008 	add	r0, r0, #8
    2bd0:	e1500002 	cmp	r0, r2
    2bd4:	9a000011 	bls	2c20 <zlib_inflate+0x1284>
    2bd8:	e51f11c4 	ldr	r1, [pc, #-452]	; 2a1c <zlib_inflate+0x1080>
    2bdc:	e3a0201b 	mov	r2, #27
    2be0:	e2444004 	sub	r4, r4, #4
    2be4:	e1a03002 	mov	r3, r2
    2be8:	e08f1001 	add	r1, pc, r1
    2bec:	e58a1018 	str	r1, [sl, #24]
    2bf0:	e58b2000 	str	r2, [fp]
    2bf4:	eafffb97 	b	1a58 <zlib_inflate+0xbc>
    2bf8:	e59dc01c 	ldr	ip, [sp, #28]
    2bfc:	e3a03011 	mov	r3, #17
    2c00:	e58b3000 	str	r3, [fp]
    2c04:	e58bc064 	str	ip, [fp, #100]	; 0x64
    2c08:	eafffc0c 	b	1c40 <zlib_inflate+0x2a4>
    2c0c:	e201100f 	and	r1, r1, #15
    2c10:	e3a03013 	mov	r3, #19
    2c14:	e58b1044 	str	r1, [fp, #68]	; 0x44
    2c18:	e58b3000 	str	r3, [fp]
    2c1c:	eafffe1a 	b	248c <zlib_inflate+0xaf0>
    2c20:	e3180c02 	tst	r8, #512	; 0x200
    2c24:	e3a02001 	mov	r2, #1
    2c28:	e1a04003 	mov	r4, r3
    2c2c:	e58b2018 	str	r2, [fp, #24]
    2c30:	03a0100b 	moveq	r1, #11
    2c34:	13a01009 	movne	r1, #9
    2c38:	e1a00012 	lsl	r0, r2, r0
    2c3c:	e1a03001 	mov	r3, r1
    2c40:	e58b0014 	str	r0, [fp, #20]
    2c44:	e1a08004 	mov	r8, r4
    2c48:	e58a2028 	str	r2, [sl, #40]	; 0x28
    2c4c:	e58b1000 	str	r1, [fp]
    2c50:	eafffb80 	b	1a58 <zlib_inflate+0xbc>
    2c54:	e59b3000 	ldr	r3, [fp]
    2c58:	e353001b 	cmp	r3, #27
    2c5c:	0afffb7d 	beq	1a58 <zlib_inflate+0xbc>
    2c60:	e28b5068 	add	r5, fp, #104	; 0x68
    2c64:	e28b3e52 	add	r3, fp, #1312	; 0x520
    2c68:	e283300c 	add	r3, r3, #12
    2c6c:	e3a01009 	mov	r1, #9
    2c70:	e58b3068 	str	r3, [fp, #104]	; 0x68
    2c74:	e28b6fbb 	add	r6, fp, #748	; 0x2ec
    2c78:	e58b3048 	str	r3, [fp, #72]	; 0x48
    2c7c:	e3a00001 	mov	r0, #1
    2c80:	e58b1050 	str	r1, [fp, #80]	; 0x50
    2c84:	e1a03005 	mov	r3, r5
    2c88:	e28b1050 	add	r1, fp, #80	; 0x50
    2c8c:	e59d2030 	ldr	r2, [sp, #48]	; 0x30
    2c90:	e88d0042 	stm	sp, {r1, r6}
    2c94:	e28b106c 	add	r1, fp, #108	; 0x6c
    2c98:	ebfff80e 	bl	cd8 <zlib_inflate_table>
    2c9c:	e3500000 	cmp	r0, #0
    2ca0:	e58d001c 	str	r0, [sp, #28]
    2ca4:	0a00008b 	beq	2ed8 <zlib_inflate+0x153c>
    2ca8:	e51f1290 	ldr	r1, [pc, #-656]	; 2a20 <zlib_inflate+0x1084>
    2cac:	e3a0201b 	mov	r2, #27
    2cb0:	e1a03002 	mov	r3, r2
    2cb4:	e08f1001 	add	r1, pc, r1
    2cb8:	e58a1018 	str	r1, [sl, #24]
    2cbc:	e58b2000 	str	r2, [fp]
    2cc0:	eafffb64 	b	1a58 <zlib_inflate+0xbc>
    2cc4:	e1a0300a 	mov	r3, sl
    2cc8:	e1a0a00b 	mov	sl, fp
    2ccc:	e1a0b003 	mov	fp, r3
    2cd0:	e3a02000 	mov	r2, #0
    2cd4:	e3a0301a 	mov	r3, #26
    2cd8:	e58d2014 	str	r2, [sp, #20]
    2cdc:	e58a3000 	str	r3, [sl]
    2ce0:	e3a03001 	mov	r3, #1
    2ce4:	e58d2010 	str	r2, [sp, #16]
    2ce8:	e58d301c 	str	r3, [sp, #28]
    2cec:	eafffbff 	b	1cf0 <zlib_inflate+0x354>
    2cf0:	e59dc020 	ldr	ip, [sp, #32]
    2cf4:	e1a0300a 	mov	r3, sl
    2cf8:	e1a0a00b 	mov	sl, fp
    2cfc:	e5839000 	str	r9, [r3]
    2d00:	e5837004 	str	r7, [r3, #4]
    2d04:	e3a00002 	mov	r0, #2
    2d08:	e583c00c 	str	ip, [r3, #12]
    2d0c:	e59dc008 	ldr	ip, [sp, #8]
    2d10:	e583c010 	str	ip, [r3, #16]
    2d14:	e58a8034 	str	r8, [sl, #52]	; 0x34
    2d18:	e58a4038 	str	r4, [sl, #56]	; 0x38
    2d1c:	eafffca6 	b	1fbc <zlib_inflate+0x620>
    2d20:	e353000f 	cmp	r3, #15
    2d24:	8a000007 	bhi	2d48 <zlib_inflate+0x13ac>
    2d28:	e28c1001 	add	r1, ip, #1
    2d2c:	e08b008c 	add	r0, fp, ip, lsl #1
    2d30:	e58b1064 	str	r1, [fp, #100]	; 0x64
    2d34:	e1a08238 	lsr	r8, r8, r2
    2d38:	e0624004 	rsb	r4, r2, r4
    2d3c:	e1a0c001 	mov	ip, r1
    2d40:	e1c036bc 	strh	r3, [r0, #108]	; 0x6c
    2d44:	eafffbc4 	b	1c5c <zlib_inflate+0x2c0>
    2d48:	e3530010 	cmp	r3, #16
    2d4c:	0a00000e 	beq	2d8c <zlib_inflate+0x13f0>
    2d50:	e3530011 	cmp	r3, #17
    2d54:	0a000030 	beq	2e1c <zlib_inflate+0x1480>
    2d58:	e2821007 	add	r1, r2, #7
    2d5c:	e1540001 	cmp	r4, r1
    2d60:	3a000006 	bcc	2d80 <zlib_inflate+0x13e4>
    2d64:	ea000015 	b	2dc0 <zlib_inflate+0x1424>
    2d68:	e4d93001 	ldrb	r3, [r9], #1
    2d6c:	e2477001 	sub	r7, r7, #1
    2d70:	e0888413 	add	r8, r8, r3, lsl r4
    2d74:	e2844008 	add	r4, r4, #8
    2d78:	e1540001 	cmp	r4, r1
    2d7c:	2a00000f 	bcs	2dc0 <zlib_inflate+0x1424>
    2d80:	e3570000 	cmp	r7, #0
    2d84:	1afffff7 	bne	2d68 <zlib_inflate+0x13cc>
    2d88:	eafffbcc 	b	1cc0 <zlib_inflate+0x324>
    2d8c:	e2821002 	add	r1, r2, #2
    2d90:	e1540001 	cmp	r4, r1
    2d94:	3a000006 	bcc	2db4 <zlib_inflate+0x1418>
    2d98:	ea00002c 	b	2e50 <zlib_inflate+0x14b4>
    2d9c:	e4d93001 	ldrb	r3, [r9], #1
    2da0:	e2477001 	sub	r7, r7, #1
    2da4:	e0888413 	add	r8, r8, r3, lsl r4
    2da8:	e2844008 	add	r4, r4, #8
    2dac:	e1540001 	cmp	r4, r1
    2db0:	2a000026 	bcs	2e50 <zlib_inflate+0x14b4>
    2db4:	e3570000 	cmp	r7, #0
    2db8:	1afffff7 	bne	2d9c <zlib_inflate+0x1400>
    2dbc:	eafffbbf 	b	1cc0 <zlib_inflate+0x324>
    2dc0:	e1a08238 	lsr	r8, r8, r2
    2dc4:	e30f3ff9 	movw	r3, #65529	; 0xfff9
    2dc8:	e34f3fff 	movt	r3, #65535	; 0xffff
    2dcc:	e208007f 	and	r0, r8, #127	; 0x7f
    2dd0:	e0623003 	rsb	r3, r2, r3
    2dd4:	e280000b 	add	r0, r0, #11
    2dd8:	e0844003 	add	r4, r4, r3
    2ddc:	e1a083a8 	lsr	r8, r8, #7
    2de0:	e3a01000 	mov	r1, #0
    2de4:	e080000c 	add	r0, r0, ip
    2de8:	e1500005 	cmp	r0, r5
    2dec:	8a000033 	bhi	2ec0 <zlib_inflate+0x1524>
    2df0:	e08b308c 	add	r3, fp, ip, lsl #1
    2df4:	e59dc034 	ldr	ip, [sp, #52]	; 0x34
    2df8:	e6ff1071 	uxth	r1, r1
    2dfc:	e283306a 	add	r3, r3, #106	; 0x6a
    2e00:	e08c2080 	add	r2, ip, r0, lsl #1
    2e04:	e1e310b2 	strh	r1, [r3, #2]!
    2e08:	e1530002 	cmp	r3, r2
    2e0c:	1afffffc 	bne	2e04 <zlib_inflate+0x1468>
    2e10:	e1a0c000 	mov	ip, r0
    2e14:	e58b0064 	str	r0, [fp, #100]	; 0x64
    2e18:	eafffb8f 	b	1c5c <zlib_inflate+0x2c0>
    2e1c:	e2821003 	add	r1, r2, #3
    2e20:	e1540001 	cmp	r4, r1
    2e24:	3a000006 	bcc	2e44 <zlib_inflate+0x14a8>
    2e28:	ea000013 	b	2e7c <zlib_inflate+0x14e0>
    2e2c:	e4d93001 	ldrb	r3, [r9], #1
    2e30:	e2477001 	sub	r7, r7, #1
    2e34:	e0888413 	add	r8, r8, r3, lsl r4
    2e38:	e2844008 	add	r4, r4, #8
    2e3c:	e1540001 	cmp	r4, r1
    2e40:	2a00000d 	bcs	2e7c <zlib_inflate+0x14e0>
    2e44:	e3570000 	cmp	r7, #0
    2e48:	1afffff7 	bne	2e2c <zlib_inflate+0x1490>
    2e4c:	eafffb9b 	b	1cc0 <zlib_inflate+0x324>
    2e50:	e35c0000 	cmp	ip, #0
    2e54:	e1a08238 	lsr	r8, r8, r2
    2e58:	e0624004 	rsb	r4, r2, r4
    2e5c:	0a000010 	beq	2ea4 <zlib_inflate+0x1508>
    2e60:	e08b308c 	add	r3, fp, ip, lsl #1
    2e64:	e2080003 	and	r0, r8, #3
    2e68:	e2444002 	sub	r4, r4, #2
    2e6c:	e2800003 	add	r0, r0, #3
    2e70:	e1d316ba 	ldrh	r1, [r3, #106]	; 0x6a
    2e74:	e1a08128 	lsr	r8, r8, #2
    2e78:	eaffffd9 	b	2de4 <zlib_inflate+0x1448>
    2e7c:	e1a08238 	lsr	r8, r8, r2
    2e80:	e30f3ffd 	movw	r3, #65533	; 0xfffd
    2e84:	e34f3fff 	movt	r3, #65535	; 0xffff
    2e88:	e2080007 	and	r0, r8, #7
    2e8c:	e0623003 	rsb	r3, r2, r3
    2e90:	e2800003 	add	r0, r0, #3
    2e94:	e0844003 	add	r4, r4, r3
    2e98:	e1a081a8 	lsr	r8, r8, #3
    2e9c:	e3a01000 	mov	r1, #0
    2ea0:	eaffffcf 	b	2de4 <zlib_inflate+0x1448>
    2ea4:	e51f2488 	ldr	r2, [pc, #-1160]	; 2a24 <zlib_inflate+0x1088>
    2ea8:	e3a0301b 	mov	r3, #27
    2eac:	e08f2002 	add	r2, pc, r2
    2eb0:	e58a2018 	str	r2, [sl, #24]
    2eb4:	e58b3000 	str	r3, [fp]
    2eb8:	e3a0301b 	mov	r3, #27
    2ebc:	eafffae5 	b	1a58 <zlib_inflate+0xbc>
    2ec0:	e51f24a0 	ldr	r2, [pc, #-1184]	; 2a28 <zlib_inflate+0x108c>
    2ec4:	e3a0301b 	mov	r3, #27
    2ec8:	e08f2002 	add	r2, pc, r2
    2ecc:	e58a2018 	str	r2, [sl, #24]
    2ed0:	e58b3000 	str	r3, [fp]
    2ed4:	eafffff7 	b	2eb8 <zlib_inflate+0x151c>
    2ed8:	e59b105c 	ldr	r1, [fp, #92]	; 0x5c
    2edc:	e3a0c006 	mov	ip, #6
    2ee0:	e59b0068 	ldr	r0, [fp, #104]	; 0x68
    2ee4:	e1a03005 	mov	r3, r5
    2ee8:	e59b2060 	ldr	r2, [fp, #96]	; 0x60
    2eec:	e08b1081 	add	r1, fp, r1, lsl #1
    2ef0:	e58bc054 	str	ip, [fp, #84]	; 0x54
    2ef4:	e58b004c 	str	r0, [fp, #76]	; 0x4c
    2ef8:	e281106c 	add	r1, r1, #108	; 0x6c
    2efc:	e28b0054 	add	r0, fp, #84	; 0x54
    2f00:	e58d6004 	str	r6, [sp, #4]
    2f04:	e58d0000 	str	r0, [sp]
    2f08:	e3a00002 	mov	r0, #2
    2f0c:	ebfff771 	bl	cd8 <zlib_inflate_table>
    2f10:	e3500000 	cmp	r0, #0
    2f14:	e58d001c 	str	r0, [sp, #28]
    2f18:	0afffd39 	beq	2404 <zlib_inflate+0xa68>
    2f1c:	e51f14f8 	ldr	r1, [pc, #-1272]	; 2a2c <zlib_inflate+0x1090>
    2f20:	e3a0201b 	mov	r2, #27
    2f24:	e1a03002 	mov	r3, r2
    2f28:	e08f1001 	add	r1, pc, r1
    2f2c:	e58a1018 	str	r1, [sl, #24]
    2f30:	e58b2000 	str	r2, [fp]
    2f34:	eafffac7 	b	1a58 <zlib_inflate+0xbc>
    2f38:	e59dc00c 	ldr	ip, [sp, #12]
    2f3c:	e59b2004 	ldr	r2, [fp, #4]
    2f40:	e58d3008 	str	r3, [sp, #8]
    2f44:	e59b3008 	ldr	r3, [fp, #8]
    2f48:	e062200c 	rsb	r2, r2, ip
    2f4c:	e58d200c 	str	r2, [sp, #12]
    2f50:	e0833002 	add	r3, r3, r2
    2f54:	e58b3008 	str	r3, [fp, #8]
    2f58:	eafffbf3 	b	1f2c <zlib_inflate+0x590>
    2f5c:	e59dc008 	ldr	ip, [sp, #8]
    2f60:	e1a0300a 	mov	r3, sl
    2f64:	e3a04000 	mov	r4, #0
    2f68:	e1a0a00b 	mov	sl, fp
    2f6c:	e1a08004 	mov	r8, r4
    2f70:	e1a0b003 	mov	fp, r3
    2f74:	e58dc018 	str	ip, [sp, #24]
    2f78:	eaffff54 	b	2cd0 <zlib_inflate+0x1334>

00002f7c <zlib_inflateEnd>:
    2f7c:	e3500000 	cmp	r0, #0
    2f80:	0a000004 	beq	2f98 <zlib_inflateEnd+0x1c>
    2f84:	e590301c 	ldr	r3, [r0, #28]
    2f88:	e3530000 	cmp	r3, #0
    2f8c:	0a000001 	beq	2f98 <zlib_inflateEnd+0x1c>
    2f90:	e3a00000 	mov	r0, #0
    2f94:	e12fff1e 	bx	lr
    2f98:	e3e00001 	mvn	r0, #1
    2f9c:	e12fff1e 	bx	lr

00002fa0 <zlib_inflateIncomp>:
    2fa0:	e92d4ff0 	push	{r4, r5, r6, r7, r8, r9, sl, fp, lr}
    2fa4:	e24dd00c 	sub	sp, sp, #12
    2fa8:	e590201c 	ldr	r2, [r0, #28]
    2fac:	e1a0a000 	mov	sl, r0
    2fb0:	e590400c 	ldr	r4, [r0, #12]
    2fb4:	e5905010 	ldr	r5, [r0, #16]
    2fb8:	e5923000 	ldr	r3, [r2]
    2fbc:	e58d2004 	str	r2, [sp, #4]
    2fc0:	e3530000 	cmp	r3, #0
    2fc4:	1353000b 	cmpne	r3, #11
    2fc8:	03a03000 	moveq	r3, #0
    2fcc:	13a03001 	movne	r3, #1
    2fd0:	1a000081 	bne	31dc <zlib_inflateIncomp+0x23c>
    2fd4:	e5902000 	ldr	r2, [r0]
    2fd8:	e5901004 	ldr	r1, [r0, #4]
    2fdc:	e5803010 	str	r3, [r0, #16]
    2fe0:	e0823001 	add	r3, r2, r1
    2fe4:	e580300c 	str	r3, [r0, #12]
    2fe8:	ebfff708 	bl	c10 <zlib_updatewindow>
    2fec:	e59d3004 	ldr	r3, [sp, #4]
    2ff0:	e59a7000 	ldr	r7, [sl]
    2ff4:	e58a5010 	str	r5, [sl, #16]
    2ff8:	e58a400c 	str	r4, [sl, #12]
    2ffc:	e3570000 	cmp	r7, #0
    3000:	e5932018 	ldr	r2, [r3, #24]
    3004:	e59a9004 	ldr	r9, [sl, #4]
    3008:	e6ffc072 	uxth	ip, r2
    300c:	e1a02822 	lsr	r2, r2, #16
    3010:	03a02001 	moveq	r2, #1
    3014:	0a00005a 	beq	3184 <zlib_inflateIncomp+0x1e4>
    3018:	e3590000 	cmp	r9, #0
    301c:	0a000057 	beq	3180 <zlib_inflateIncomp+0x1e0>
    3020:	e3080071 	movw	r0, #32881	; 0x8071
    3024:	e3480007 	movt	r0, #32775	; 0x8007
    3028:	e301b5b0 	movw	fp, #5552	; 0x15b0
    302c:	e159000b 	cmp	r9, fp
    3030:	31a06009 	movcc	r6, r9
    3034:	21a0600b 	movcs	r6, fp
    3038:	e356000f 	cmp	r6, #15
    303c:	e0669009 	rsb	r9, r6, r9
    3040:	e1a01006 	mov	r1, r6
    3044:	da000039 	ble	3130 <zlib_inflateIncomp+0x190>
    3048:	e1a03007 	mov	r3, r7
    304c:	e5d38000 	ldrb	r8, [r3]
    3050:	e2411010 	sub	r1, r1, #16
    3054:	e5d34001 	ldrb	r4, [r3, #1]
    3058:	e351000f 	cmp	r1, #15
    305c:	e08c8008 	add	r8, ip, r8
    3060:	e5d3c002 	ldrb	ip, [r3, #2]
    3064:	e5d35003 	ldrb	r5, [r3, #3]
    3068:	e0884004 	add	r4, r8, r4
    306c:	e0848008 	add	r8, r4, r8
    3070:	e084400c 	add	r4, r4, ip
    3074:	e5d3c004 	ldrb	ip, [r3, #4]
    3078:	e0888004 	add	r8, r8, r4
    307c:	e0844005 	add	r4, r4, r5
    3080:	e5d35005 	ldrb	r5, [r3, #5]
    3084:	e0888004 	add	r8, r8, r4
    3088:	e084400c 	add	r4, r4, ip
    308c:	e5d3c006 	ldrb	ip, [r3, #6]
    3090:	e0888004 	add	r8, r8, r4
    3094:	e0844005 	add	r4, r4, r5
    3098:	e5d35007 	ldrb	r5, [r3, #7]
    309c:	e0888004 	add	r8, r8, r4
    30a0:	e084400c 	add	r4, r4, ip
    30a4:	e5d3c008 	ldrb	ip, [r3, #8]
    30a8:	e0888004 	add	r8, r8, r4
    30ac:	e0844005 	add	r4, r4, r5
    30b0:	e5d35009 	ldrb	r5, [r3, #9]
    30b4:	e0888004 	add	r8, r8, r4
    30b8:	e084400c 	add	r4, r4, ip
    30bc:	e5d3c00a 	ldrb	ip, [r3, #10]
    30c0:	e0888004 	add	r8, r8, r4
    30c4:	e0844005 	add	r4, r4, r5
    30c8:	e5d3500b 	ldrb	r5, [r3, #11]
    30cc:	e0888004 	add	r8, r8, r4
    30d0:	e084400c 	add	r4, r4, ip
    30d4:	e5d3c00c 	ldrb	ip, [r3, #12]
    30d8:	e0888004 	add	r8, r8, r4
    30dc:	e0844005 	add	r4, r4, r5
    30e0:	e5d3500d 	ldrb	r5, [r3, #13]
    30e4:	e0888004 	add	r8, r8, r4
    30e8:	e084400c 	add	r4, r4, ip
    30ec:	e5d3c00e 	ldrb	ip, [r3, #14]
    30f0:	e0888004 	add	r8, r8, r4
    30f4:	e0844005 	add	r4, r4, r5
    30f8:	e5d3500f 	ldrb	r5, [r3, #15]
    30fc:	e084c00c 	add	ip, r4, ip
    3100:	e0888004 	add	r8, r8, r4
    3104:	e088800c 	add	r8, r8, ip
    3108:	e08cc005 	add	ip, ip, r5
    310c:	e088800c 	add	r8, r8, ip
    3110:	e2833010 	add	r3, r3, #16
    3114:	e0822008 	add	r2, r2, r8
    3118:	caffffcb 	bgt	304c <zlib_inflateIncomp+0xac>
    311c:	e2461010 	sub	r1, r6, #16
    3120:	e1a03221 	lsr	r3, r1, #4
    3124:	e2834001 	add	r4, r3, #1
    3128:	e0411203 	sub	r1, r1, r3, lsl #4
    312c:	e0877204 	add	r7, r7, r4, lsl #4
    3130:	e3510000 	cmp	r1, #0
    3134:	0a000005 	beq	3150 <zlib_inflateIncomp+0x1b0>
    3138:	e0871001 	add	r1, r7, r1
    313c:	e4d73001 	ldrb	r3, [r7], #1
    3140:	e1570001 	cmp	r7, r1
    3144:	e08cc003 	add	ip, ip, r3
    3148:	e082200c 	add	r2, r2, ip
    314c:	1afffffa 	bne	313c <zlib_inflateIncomp+0x19c>
    3150:	e0814c90 	umull	r4, r1, r0, ip
    3154:	e3590000 	cmp	r9, #0
    3158:	e0834290 	umull	r4, r3, r0, r2
    315c:	e1a017a1 	lsr	r1, r1, #15
    3160:	e0614601 	rsb	r4, r1, r1, lsl #12
    3164:	e1a037a3 	lsr	r3, r3, #15
    3168:	e0811204 	add	r1, r1, r4, lsl #4
    316c:	e0634603 	rsb	r4, r3, r3, lsl #12
    3170:	e061c00c 	rsb	ip, r1, ip
    3174:	e0833204 	add	r3, r3, r4, lsl #4
    3178:	e0632002 	rsb	r2, r3, r2
    317c:	1affffaa 	bne	302c <zlib_inflateIncomp+0x8c>
    3180:	e18c2802 	orr	r2, ip, r2, lsl #16
    3184:	e59dc004 	ldr	ip, [sp, #4]
    3188:	e3a01000 	mov	r1, #0
    318c:	e1a00001 	mov	r0, r1
    3190:	e58c2018 	str	r2, [ip, #24]
    3194:	e59a3004 	ldr	r3, [sl, #4]
    3198:	e59a4000 	ldr	r4, [sl]
    319c:	e58a2028 	str	r2, [sl, #40]	; 0x28
    31a0:	e0842003 	add	r2, r4, r3
    31a4:	e59d4004 	ldr	r4, [sp, #4]
    31a8:	e59a5014 	ldr	r5, [sl, #20]
    31ac:	e59ac008 	ldr	ip, [sl, #8]
    31b0:	e0855003 	add	r5, r5, r3
    31b4:	e58a2000 	str	r2, [sl]
    31b8:	e08cc003 	add	ip, ip, r3
    31bc:	e58a5014 	str	r5, [sl, #20]
    31c0:	e58ac008 	str	ip, [sl, #8]
    31c4:	e594201c 	ldr	r2, [r4, #28]
    31c8:	e0823003 	add	r3, r2, r3
    31cc:	e584301c 	str	r3, [r4, #28]
    31d0:	e58a1004 	str	r1, [sl, #4]
    31d4:	e28dd00c 	add	sp, sp, #12
    31d8:	e8bd8ff0 	pop	{r4, r5, r6, r7, r8, r9, sl, fp, pc}
    31dc:	e3e00002 	mvn	r0, #2
    31e0:	e28dd00c 	add	sp, sp, #12
    31e4:	e8bd8ff0 	pop	{r4, r5, r6, r7, r8, r9, sl, fp, pc}

000031e8 <do_decompress>:
    31e8:	e92d47f0 	push	{r4, r5, r6, r7, r8, r9, sl, lr}
    31ec:	e252a000 	subs	sl, r2, #0
    31f0:	e59f42d0 	ldr	r4, [pc, #720]	; 34c8 <do_decompress+0x2e0>
    31f4:	e1a05000 	mov	r5, r0
    31f8:	e1a06001 	mov	r6, r1
    31fc:	e1a08003 	mov	r8, r3
    3200:	e08f4004 	add	r4, pc, r4
    3204:	0a00009e 	beq	3484 <do_decompress+0x29c>
    3208:	e3500000 	cmp	r0, #0
    320c:	11a09000 	movne	r9, r0
    3210:	0a000062 	beq	33a0 <do_decompress+0x1b8>
    3214:	e3a00030 	mov	r0, #48	; 0x30
    3218:	ebfff655 	bl	b74 <malloc>
    321c:	e2507000 	subs	r7, r0, #0
    3220:	0a000068 	beq	33c8 <do_decompress+0x1e0>
    3224:	e302052c 	movw	r0, #9516	; 0x252c
    3228:	ebfff651 	bl	b74 <malloc>
    322c:	e3500000 	cmp	r0, #0
    3230:	e5870020 	str	r0, [r7, #32]
    3234:	0a000068 	beq	33dc <do_decompress+0x1f4>
    3238:	e3560000 	cmp	r6, #0
    323c:	0a000052 	beq	338c <do_decompress+0x1a4>
    3240:	e3560009 	cmp	r6, #9
    3244:	ca000030 	bgt	330c <do_decompress+0x124>
    3248:	e59f027c 	ldr	r0, [pc, #636]	; 34cc <do_decompress+0x2e4>
    324c:	e3e06000 	mvn	r6, #0
    3250:	e08f0000 	add	r0, pc, r0
    3254:	e12fff38 	blx	r8
    3258:	e59f3270 	ldr	r3, [pc, #624]	; 34d0 <do_decompress+0x2e8>
    325c:	e7943003 	ldr	r3, [r4, r3]
    3260:	e5932000 	ldr	r2, [r3]
    3264:	e2422001 	sub	r2, r2, #1
    3268:	e5832000 	str	r2, [r3]
    326c:	e3520000 	cmp	r2, #0
    3270:	0a00000d 	beq	32ac <do_decompress+0xc4>
    3274:	e2422001 	sub	r2, r2, #1
    3278:	e5832000 	str	r2, [r3]
    327c:	e3520000 	cmp	r2, #0
    3280:	1a000005 	bne	329c <do_decompress+0xb4>
    3284:	e59f2248 	ldr	r2, [pc, #584]	; 34d4 <do_decompress+0x2ec>
    3288:	e59f3248 	ldr	r3, [pc, #584]	; 34d8 <do_decompress+0x2f0>
    328c:	e7942002 	ldr	r2, [r4, r2]
    3290:	e7943003 	ldr	r3, [r4, r3]
    3294:	e5922000 	ldr	r2, [r2]
    3298:	e5832000 	str	r2, [r3]
    329c:	e3550000 	cmp	r5, #0
    32a0:	0a00000b 	beq	32d4 <do_decompress+0xec>
    32a4:	e1a00006 	mov	r0, r6
    32a8:	e8bd87f0 	pop	{r4, r5, r6, r7, r8, r9, sl, pc}
    32ac:	e59f1220 	ldr	r1, [pc, #544]	; 34d4 <do_decompress+0x2ec>
    32b0:	e3e00000 	mvn	r0, #0
    32b4:	e59f221c 	ldr	r2, [pc, #540]	; 34d8 <do_decompress+0x2f0>
    32b8:	e3550000 	cmp	r5, #0
    32bc:	e7941001 	ldr	r1, [r4, r1]
    32c0:	e7942002 	ldr	r2, [r4, r2]
    32c4:	e5830000 	str	r0, [r3]
    32c8:	e5913000 	ldr	r3, [r1]
    32cc:	e5823000 	str	r3, [r2]
    32d0:	1afffff3 	bne	32a4 <do_decompress+0xbc>
    32d4:	e59f31f4 	ldr	r3, [pc, #500]	; 34d0 <do_decompress+0x2e8>
    32d8:	e7942003 	ldr	r2, [r4, r3]
    32dc:	e5923000 	ldr	r3, [r2]
    32e0:	e2433001 	sub	r3, r3, #1
    32e4:	e5823000 	str	r3, [r2]
    32e8:	e3530000 	cmp	r3, #0
    32ec:	1affffec 	bne	32a4 <do_decompress+0xbc>
    32f0:	e59f21dc 	ldr	r2, [pc, #476]	; 34d4 <do_decompress+0x2ec>
    32f4:	e59f31dc 	ldr	r3, [pc, #476]	; 34d8 <do_decompress+0x2f0>
    32f8:	e7942002 	ldr	r2, [r4, r2]
    32fc:	e7943003 	ldr	r3, [r4, r3]
    3300:	e5922000 	ldr	r2, [r2]
    3304:	e5832000 	str	r2, [r3]
    3308:	eaffffe5 	b	32a4 <do_decompress+0xbc>
    330c:	e5d93000 	ldrb	r3, [r9]
    3310:	e353001f 	cmp	r3, #31
    3314:	1affffcb 	bne	3248 <do_decompress+0x60>
    3318:	e5d93001 	ldrb	r3, [r9, #1]
    331c:	e353008b 	cmp	r3, #139	; 0x8b
    3320:	1affffc8 	bne	3248 <do_decompress+0x60>
    3324:	e5d93002 	ldrb	r3, [r9, #2]
    3328:	e3530008 	cmp	r3, #8
    332c:	1affffc5 	bne	3248 <do_decompress+0x60>
    3330:	e289300a 	add	r3, r9, #10
    3334:	e246600a 	sub	r6, r6, #10
    3338:	e8870048 	stm	r7, {r3, r6}
    333c:	e5d93003 	ldrb	r3, [r9, #3]
    3340:	e3130008 	tst	r3, #8
    3344:	1a000007 	bne	3368 <do_decompress+0x180>
    3348:	ea00002b 	b	33fc <do_decompress+0x214>
    334c:	e5972000 	ldr	r2, [r7]
    3350:	e5873004 	str	r3, [r7, #4]
    3354:	e2823001 	add	r3, r2, #1
    3358:	e5873000 	str	r3, [r7]
    335c:	e5d23000 	ldrb	r3, [r2]
    3360:	e3530000 	cmp	r3, #0
    3364:	0a000024 	beq	33fc <do_decompress+0x214>
    3368:	e2463001 	sub	r3, r6, #1
    336c:	e3560000 	cmp	r6, #0
    3370:	e1a06003 	mov	r6, r3
    3374:	1afffff4 	bne	334c <do_decompress+0x164>
    3378:	e59f015c 	ldr	r0, [pc, #348]	; 34dc <do_decompress+0x2f4>
    337c:	e3e06000 	mvn	r6, #0
    3380:	e08f0000 	add	r0, pc, r0
    3384:	e12fff38 	blx	r8
    3388:	eaffffb2 	b	3258 <do_decompress+0x70>
    338c:	e1a00009 	mov	r0, r9
    3390:	e3a01901 	mov	r1, #16384	; 0x4000
    3394:	ebfff61b 	bl	c08 <nofill>
    3398:	e1a06000 	mov	r6, r0
    339c:	eaffffa7 	b	3240 <do_decompress+0x58>
    33a0:	e3a00901 	mov	r0, #16384	; 0x4000
    33a4:	ebfff5f2 	bl	b74 <malloc>
    33a8:	e2509000 	subs	r9, r0, #0
    33ac:	1a000043 	bne	34c0 <do_decompress+0x2d8>
    33b0:	e59f0128 	ldr	r0, [pc, #296]	; 34e0 <do_decompress+0x2f8>
    33b4:	e3e06000 	mvn	r6, #0
    33b8:	e08f0000 	add	r0, pc, r0
    33bc:	e12fff38 	blx	r8
    33c0:	e1a00006 	mov	r0, r6
    33c4:	e8bd87f0 	pop	{r4, r5, r6, r7, r8, r9, sl, pc}
    33c8:	e59f0114 	ldr	r0, [pc, #276]	; 34e4 <do_decompress+0x2fc>
    33cc:	e3e06000 	mvn	r6, #0
    33d0:	e08f0000 	add	r0, pc, r0
    33d4:	e12fff38 	blx	r8
    33d8:	eaffffaf 	b	329c <do_decompress+0xb4>
    33dc:	e59f0104 	ldr	r0, [pc, #260]	; 34e8 <do_decompress+0x300>
    33e0:	e3e06000 	mvn	r6, #0
    33e4:	e08f0000 	add	r0, pc, r0
    33e8:	e12fff38 	blx	r8
    33ec:	e59f30dc 	ldr	r3, [pc, #220]	; 34d0 <do_decompress+0x2e8>
    33f0:	e7943003 	ldr	r3, [r4, r3]
    33f4:	e5932000 	ldr	r2, [r3]
    33f8:	eaffff9d 	b	3274 <do_decompress+0x8c>
    33fc:	e587a00c 	str	sl, [r7, #12]
    3400:	e1a00007 	mov	r0, r7
    3404:	e1e0a00a 	mvn	sl, sl
    3408:	e3e0100e 	mvn	r1, #14
    340c:	e587a010 	str	sl, [r7, #16]
    3410:	ebfff949 	bl	193c <zlib_inflateInit2>
    3414:	e5972020 	ldr	r2, [r7, #32]
    3418:	e3a03000 	mov	r3, #0
    341c:	e5823024 	str	r3, [r2, #36]	; 0x24
    3420:	e5972020 	ldr	r2, [r7, #32]
    3424:	e5823030 	str	r3, [r2, #48]	; 0x30
    3428:	e2506000 	subs	r6, r0, #0
    342c:	0a000002 	beq	343c <do_decompress+0x254>
    3430:	ea000010 	b	3478 <do_decompress+0x290>
    3434:	e3500000 	cmp	r0, #0
    3438:	1a000016 	bne	3498 <do_decompress+0x2b0>
    343c:	e5973004 	ldr	r3, [r7, #4]
    3440:	e3a01901 	mov	r1, #16384	; 0x4000
    3444:	e1a00009 	mov	r0, r9
    3448:	e3530000 	cmp	r3, #0
    344c:	1a000004 	bne	3464 <do_decompress+0x27c>
    3450:	ebfff5ec 	bl	c08 <nofill>
    3454:	e3500000 	cmp	r0, #0
    3458:	ba000013 	blt	34ac <do_decompress+0x2c4>
    345c:	e5879000 	str	r9, [r7]
    3460:	e5870004 	str	r0, [r7, #4]
    3464:	e1a00007 	mov	r0, r7
    3468:	e3a01000 	mov	r1, #0
    346c:	ebfff94a 	bl	199c <zlib_inflate>
    3470:	e3500001 	cmp	r0, #1
    3474:	1affffee 	bne	3434 <do_decompress+0x24c>
    3478:	e1a00007 	mov	r0, r7
    347c:	ebfffebe 	bl	2f7c <zlib_inflateEnd>
    3480:	eaffff74 	b	3258 <do_decompress+0x70>
    3484:	e59f0060 	ldr	r0, [pc, #96]	; 34ec <do_decompress+0x304>
    3488:	e3e06000 	mvn	r6, #0
    348c:	e08f0000 	add	r0, pc, r0
    3490:	e12fff33 	blx	r3
    3494:	eaffff82 	b	32a4 <do_decompress+0xbc>
    3498:	e59f0050 	ldr	r0, [pc, #80]	; 34f0 <do_decompress+0x308>
    349c:	e3e06000 	mvn	r6, #0
    34a0:	e08f0000 	add	r0, pc, r0
    34a4:	e12fff38 	blx	r8
    34a8:	eafffff2 	b	3478 <do_decompress+0x290>
    34ac:	e59f0040 	ldr	r0, [pc, #64]	; 34f4 <do_decompress+0x30c>
    34b0:	e3e06000 	mvn	r6, #0
    34b4:	e08f0000 	add	r0, pc, r0
    34b8:	e12fff38 	blx	r8
    34bc:	eaffffed 	b	3478 <do_decompress+0x290>
    34c0:	e1a06005 	mov	r6, r5
    34c4:	eaffff52 	b	3214 <do_decompress+0x2c>
    34c8:	002a03f4 	.word	0x002a03f4
    34cc:	000033fc 	.word	0x000033fc
    34d0:	00000018 	.word	0x00000018
    34d4:	00000030 	.word	0x00000030
    34d8:	0000000c 	.word	0x0000000c
    34dc:	000032dc 	.word	0x000032dc
    34e0:	00003214 	.word	0x00003214
    34e4:	00003228 	.word	0x00003228
    34e8:	0000323c 	.word	0x0000323c
    34ec:	00003110 	.word	0x00003110
    34f0:	000031d8 	.word	0x000031d8
    34f4:	000031b8 	.word	0x000031b8

000034f8 <memcpy>:
    34f8:	e92d4070 	push	{r4, r5, r6, lr}
    34fc:	e1a041a2 	lsr	r4, r2, #3
    3500:	e1a03000 	mov	r3, r0
    3504:	e1a0c001 	mov	ip, r1
    3508:	e1a05004 	mov	r5, r4
    350c:	e3550000 	cmp	r5, #0
    3510:	da000013 	ble	3564 <memcpy+0x6c>
    3514:	e5dc6000 	ldrb	r6, [ip]
    3518:	e2455001 	sub	r5, r5, #1
    351c:	e2833008 	add	r3, r3, #8
    3520:	e28cc008 	add	ip, ip, #8
    3524:	e5436008 	strb	r6, [r3, #-8]
    3528:	e55c6007 	ldrb	r6, [ip, #-7]
    352c:	e5436007 	strb	r6, [r3, #-7]
    3530:	e55c6006 	ldrb	r6, [ip, #-6]
    3534:	e5436006 	strb	r6, [r3, #-6]
    3538:	e55c6005 	ldrb	r6, [ip, #-5]
    353c:	e5436005 	strb	r6, [r3, #-5]
    3540:	e55c6004 	ldrb	r6, [ip, #-4]
    3544:	e5436004 	strb	r6, [r3, #-4]
    3548:	e55c6003 	ldrb	r6, [ip, #-3]
    354c:	e5436003 	strb	r6, [r3, #-3]
    3550:	e55c6002 	ldrb	r6, [ip, #-2]
    3554:	e5436002 	strb	r6, [r3, #-2]
    3558:	e55c6001 	ldrb	r6, [ip, #-1]
    355c:	e5436001 	strb	r6, [r3, #-1]
    3560:	eaffffe9 	b	350c <memcpy+0x14>
    3564:	e1c44fc4 	bic	r4, r4, r4, asr #31
    3568:	e3120004 	tst	r2, #4
    356c:	e1a0c184 	lsl	ip, r4, #3
    3570:	e080300c 	add	r3, r0, ip
    3574:	e081c00c 	add	ip, r1, ip
    3578:	0a000009 	beq	35a4 <memcpy+0xac>
    357c:	e7d11184 	ldrb	r1, [r1, r4, lsl #3]
    3580:	e28cc004 	add	ip, ip, #4
    3584:	e2833004 	add	r3, r3, #4
    3588:	e7c01184 	strb	r1, [r0, r4, lsl #3]
    358c:	e55c1003 	ldrb	r1, [ip, #-3]
    3590:	e5431003 	strb	r1, [r3, #-3]
    3594:	e55c1002 	ldrb	r1, [ip, #-2]
    3598:	e5431002 	strb	r1, [r3, #-2]
    359c:	e55c1001 	ldrb	r1, [ip, #-1]
    35a0:	e5431001 	strb	r1, [r3, #-1]
    35a4:	e3120002 	tst	r2, #2
    35a8:	0a000007 	beq	35cc <memcpy+0xd4>
    35ac:	e1a0400c 	mov	r4, ip
    35b0:	e1a01003 	mov	r1, r3
    35b4:	e4d45002 	ldrb	r5, [r4], #2
    35b8:	e4c15002 	strb	r5, [r1], #2
    35bc:	e5dcc001 	ldrb	ip, [ip, #1]
    35c0:	e5c3c001 	strb	ip, [r3, #1]
    35c4:	e1a0c004 	mov	ip, r4
    35c8:	e1a03001 	mov	r3, r1
    35cc:	e3120001 	tst	r2, #1
    35d0:	15dc2000 	ldrbne	r2, [ip]
    35d4:	15c32000 	strbne	r2, [r3]
    35d8:	e8bd8070 	pop	{r4, r5, r6, pc}

000035dc <memmove>:
    35dc:	e1500001 	cmp	r0, r1
    35e0:	e1a0c000 	mov	ip, r0
    35e4:	e92d4010 	push	{r4, lr}
    35e8:	e1a03002 	mov	r3, r2
    35ec:	e1a04001 	mov	r4, r1
    35f0:	0a000006 	beq	3610 <memmove+0x34>
    35f4:	2a000001 	bcs	3600 <memmove+0x24>
    35f8:	e8bd4010 	pop	{r4, lr}
    35fc:	eaffffbd 	b	34f8 <memcpy>
    3600:	e2533001 	subs	r3, r3, #1
    3604:	27d42003 	ldrbcs	r2, [r4, r3]
    3608:	27cc2003 	strbcs	r2, [ip, r3]
    360c:	2afffffb 	bcs	3600 <memmove+0x24>
    3610:	e1a0000c 	mov	r0, ip
    3614:	e8bd8010 	pop	{r4, pc}

00003618 <strlen>:
    3618:	e1a03000 	mov	r3, r0
    361c:	e1a02003 	mov	r2, r3
    3620:	e2833001 	add	r3, r3, #1
    3624:	e5d21000 	ldrb	r1, [r2]
    3628:	e3510000 	cmp	r1, #0
    362c:	1afffffa 	bne	361c <strlen+0x4>
    3630:	e0600002 	rsb	r0, r0, r2
    3634:	e12fff1e 	bx	lr

00003638 <memcmp>:
    3638:	e0802002 	add	r2, r0, r2
    363c:	e1a03000 	mov	r3, r0
    3640:	e1530002 	cmp	r3, r2
    3644:	2a000004 	bcs	365c <memcmp+0x24>
    3648:	e4d3c001 	ldrb	ip, [r3], #1
    364c:	e4d10001 	ldrb	r0, [r1], #1
    3650:	e05c0000 	subs	r0, ip, r0
    3654:	0afffff9 	beq	3640 <memcmp+0x8>
    3658:	e12fff1e 	bx	lr
    365c:	e3a00000 	mov	r0, #0
    3660:	e12fff1e 	bx	lr

00003664 <strcmp>:
    3664:	e3a03000 	mov	r3, #0
    3668:	e7d02003 	ldrb	r2, [r0, r3]
    366c:	e7d1c003 	ldrb	ip, [r1, r3]
    3670:	e052c00c 	subs	ip, r2, ip
    3674:	1a000002 	bne	3684 <strcmp+0x20>
    3678:	e3520000 	cmp	r2, #0
    367c:	e2833001 	add	r3, r3, #1
    3680:	1afffff8 	bne	3668 <strcmp+0x4>
    3684:	e1a0000c 	mov	r0, ip
    3688:	e12fff1e 	bx	lr

0000368c <memchr>:
    368c:	e0802002 	add	r2, r0, r2
    3690:	e6ef1071 	uxtb	r1, r1
    3694:	e1500002 	cmp	r0, r2
    3698:	0a000005 	beq	36b4 <memchr+0x28>
    369c:	e1a03000 	mov	r3, r0
    36a0:	e4d3c001 	ldrb	ip, [r3], #1
    36a4:	e15c0001 	cmp	ip, r1
    36a8:	012fff1e 	bxeq	lr
    36ac:	e1a00003 	mov	r0, r3
    36b0:	eafffff7 	b	3694 <memchr+0x8>
    36b4:	e3a00000 	mov	r0, #0
    36b8:	e12fff1e 	bx	lr

000036bc <strchr>:
    36bc:	e6ef1071 	uxtb	r1, r1
    36c0:	e1a02000 	mov	r2, r0
    36c4:	e4d03001 	ldrb	r3, [r0], #1
    36c8:	e1530001 	cmp	r3, r1
    36cc:	0a000003 	beq	36e0 <strchr+0x24>
    36d0:	e3530000 	cmp	r3, #0
    36d4:	1afffff9 	bne	36c0 <strchr+0x4>
    36d8:	e1a00003 	mov	r0, r3
    36dc:	e12fff1e 	bx	lr
    36e0:	e1a00002 	mov	r0, r2
    36e4:	e12fff1e 	bx	lr

000036e8 <memset>:
    36e8:	e0802002 	add	r2, r0, r2
    36ec:	e1a03000 	mov	r3, r0
    36f0:	e1530002 	cmp	r3, r2
    36f4:	14c31001 	strbne	r1, [r3], #1
    36f8:	1afffffc 	bne	36f0 <memset+0x8>
    36fc:	e12fff1e 	bx	lr

00003700 <__memzero>:
    3700:	e1a02001 	mov	r2, r1
    3704:	e3a01000 	mov	r1, #0
    3708:	eafffff6 	b	36e8 <memset>
	...

00003720 <__hyp_stub_install>:
    3720:	e10f4000 	mrs	r4, CPSR
    3724:	e204401f 	and	r4, r4, #31
    3728:	e1540004 	cmp	r4, r4
    372c:	11a0f00e 	movne	pc, lr
    3730:	e354001a 	cmp	r4, #26
    3734:	11a0f00e 	movne	pc, lr
    3738:	e28f7040 	add	r7, pc, #64	; 0x40
    373c:	ee8c7f10 	mcr	15, 4, r7, cr12, cr0, {0}
    3740:	e3a07000 	mov	r7, #0
    3744:	ee817f11 	mcr	15, 4, r7, cr1, cr1, {0}
    3748:	ee817f51 	mcr	15, 4, r7, cr1, cr1, {2}
    374c:	ee817f71 	mcr	15, 4, r7, cr1, cr1, {3}
    3750:	ee817f10 	mcr	15, 4, r7, cr1, cr0, {0}
    3754:	ee917f31 	mrc	15, 4, r7, cr1, cr1, {1}
    3758:	e207701f 	and	r7, r7, #31
    375c:	ee817f31 	mcr	15, 4, r7, cr1, cr1, {1}
    3760:	e12fff1e 	bx	lr

00003764 <__hyp_stub_do_trap>:
    3764:	e3700001 	cmn	r0, #1
    3768:	0e9c0f10 	mrceq	15, 4, r0, cr12, cr0, {0}
    376c:	1e8c0f10 	mcrne	15, 4, r0, cr12, cr0, {0}
    3770:	e160006e 	.word	0xe160006e

00003774 <__hyp_get_vectors>:
    3774:	e3e00000 	mvn	r0, #0

00003778 <__hyp_set_vectors>:
    3778:	e1400070 	.word	0xe1400070
    377c:	e1a0f00e 	mov	pc, lr

00003780 <__hyp_stub_vectors>:
    3780:	eafffffe 	b	3780 <__hyp_stub_vectors>

00003784 <__hyp_stub_und>:
    3784:	eafffffe 	b	3784 <__hyp_stub_und>

00003788 <__hyp_stub_svc>:
    3788:	eafffffe 	b	3788 <__hyp_stub_svc>

0000378c <__hyp_stub_pabort>:
    378c:	eafffffe 	b	378c <__hyp_stub_pabort>

00003790 <__hyp_stub_dabort>:
    3790:	eafffffe 	b	3790 <__hyp_stub_dabort>

00003794 <__hyp_stub_trap>:
    3794:	eafffff2 	b	3764 <__hyp_stub_do_trap>

00003798 <__hyp_stub_irq>:
    3798:	eafffffe 	b	3798 <__hyp_stub_irq>

0000379c <__hyp_stub_fiq>:
    379c:	eafffffe 	b	379c <__hyp_stub_fiq>

000037a0 <_fdt_blocks_misordered>:
    37a0:	e5903010 	ldr	r3, [r0, #16]
    37a4:	e6bf3f33 	rev	r3, r3
    37a8:	e3530027 	cmp	r3, #39	; 0x27
    37ac:	9a000012 	bls	37fc <_fdt_blocks_misordered+0x5c>
    37b0:	e590c008 	ldr	ip, [r0, #8]
    37b4:	e0833001 	add	r3, r3, r1
    37b8:	e6bfcf3c 	rev	ip, ip
    37bc:	e153000c 	cmp	r3, ip
    37c0:	8a00000d 	bhi	37fc <_fdt_blocks_misordered+0x5c>
    37c4:	e590300c 	ldr	r3, [r0, #12]
    37c8:	e08cc002 	add	ip, ip, r2
    37cc:	e6bf3f33 	rev	r3, r3
    37d0:	e15c0003 	cmp	ip, r3
    37d4:	8a000008 	bhi	37fc <_fdt_blocks_misordered+0x5c>
    37d8:	e5901020 	ldr	r1, [r0, #32]
    37dc:	e5902004 	ldr	r2, [r0, #4]
    37e0:	e6bf0f31 	rev	r0, r1
    37e4:	e0803003 	add	r3, r0, r3
    37e8:	e6bf2f32 	rev	r2, r2
    37ec:	e1530002 	cmp	r3, r2
    37f0:	93a00000 	movls	r0, #0
    37f4:	83a00001 	movhi	r0, #1
    37f8:	e12fff1e 	bx	lr
    37fc:	e3a00001 	mov	r0, #1
    3800:	e12fff1e 	bx	lr

00003804 <_fdt_splice>:
    3804:	e92d4070 	push	{r4, r5, r6, lr}
    3808:	e0914002 	adds	r4, r1, r2
    380c:	e590c00c 	ldr	ip, [r0, #12]
    3810:	e5905020 	ldr	r5, [r0, #32]
    3814:	e6bfcf3c 	rev	ip, ip
    3818:	e6bf5f35 	rev	r5, r5
    381c:	e085c00c 	add	ip, r5, ip
    3820:	e080c00c 	add	ip, r0, ip
    3824:	2a000011 	bcs	3870 <_fdt_splice+0x6c>
    3828:	e15c0004 	cmp	ip, r4
    382c:	3a00000f 	bcc	3870 <_fdt_splice+0x6c>
    3830:	e5906004 	ldr	r6, [r0, #4]
    3834:	e0625003 	rsb	r5, r2, r3
    3838:	e08c5005 	add	r5, ip, r5
    383c:	e6bf6f36 	rev	r6, r6
    3840:	e0800006 	add	r0, r0, r6
    3844:	e1550000 	cmp	r5, r0
    3848:	8a000006 	bhi	3868 <_fdt_splice+0x64>
    384c:	e061c00c 	rsb	ip, r1, ip
    3850:	e0810003 	add	r0, r1, r3
    3854:	e062200c 	rsb	r2, r2, ip
    3858:	e1a01004 	mov	r1, r4
    385c:	ebffff5e 	bl	35dc <memmove>
    3860:	e3a00000 	mov	r0, #0
    3864:	e8bd8070 	pop	{r4, r5, r6, pc}
    3868:	e3e00002 	mvn	r0, #2
    386c:	e8bd8070 	pop	{r4, r5, r6, pc}
    3870:	e3e00003 	mvn	r0, #3
    3874:	e8bd8070 	pop	{r4, r5, r6, pc}

00003878 <_fdt_splice_mem_rsv>:
    3878:	e92d4070 	push	{r4, r5, r6, lr}
    387c:	e1a05002 	mov	r5, r2
    3880:	e1a06003 	mov	r6, r3
    3884:	e1a02202 	lsl	r2, r2, #4
    3888:	e1a03203 	lsl	r3, r3, #4
    388c:	e1a04000 	mov	r4, r0
    3890:	ebffffdb 	bl	3804 <_fdt_splice>
    3894:	e3500000 	cmp	r0, #0
    3898:	18bd8070 	popne	{r4, r5, r6, pc}
    389c:	e5943008 	ldr	r3, [r4, #8]
    38a0:	e0655006 	rsb	r5, r5, r6
    38a4:	e594200c 	ldr	r2, [r4, #12]
    38a8:	e1a05205 	lsl	r5, r5, #4
    38ac:	e6bf3f33 	rev	r3, r3
    38b0:	e6bf6f32 	rev	r6, r2
    38b4:	e0833005 	add	r3, r3, r5
    38b8:	e0865005 	add	r5, r6, r5
    38bc:	e6bf3f33 	rev	r3, r3
    38c0:	e6bf5f35 	rev	r5, r5
    38c4:	e5843008 	str	r3, [r4, #8]
    38c8:	e584500c 	str	r5, [r4, #12]
    38cc:	e8bd8070 	pop	{r4, r5, r6, pc}

000038d0 <_fdt_splice_struct>:
    38d0:	e92d4070 	push	{r4, r5, r6, lr}
    38d4:	e1a04000 	mov	r4, r0
    38d8:	e1a05002 	mov	r5, r2
    38dc:	e1a06003 	mov	r6, r3
    38e0:	ebffffc7 	bl	3804 <_fdt_splice>
    38e4:	e3500000 	cmp	r0, #0
    38e8:	18bd8070 	popne	{r4, r5, r6, pc}
    38ec:	e5942024 	ldr	r2, [r4, #36]	; 0x24
    38f0:	e0653006 	rsb	r3, r5, r6
    38f4:	e594100c 	ldr	r1, [r4, #12]
    38f8:	e6bf2f32 	rev	r2, r2
    38fc:	e6bf1f31 	rev	r1, r1
    3900:	e0822003 	add	r2, r2, r3
    3904:	e0813003 	add	r3, r1, r3
    3908:	e6bf2f32 	rev	r2, r2
    390c:	e6bf3f33 	rev	r3, r3
    3910:	e5842024 	str	r2, [r4, #36]	; 0x24
    3914:	e584300c 	str	r3, [r4, #12]
    3918:	e8bd8070 	pop	{r4, r5, r6, pc}

0000391c <_fdt_packblocks>:
    391c:	e92d41f0 	push	{r4, r5, r6, r7, r8, lr}
    3920:	e1a04001 	mov	r4, r1
    3924:	e5901010 	ldr	r1, [r0, #16]
    3928:	e1a05000 	mov	r5, r0
    392c:	e2827028 	add	r7, r2, #40	; 0x28
    3930:	e2840028 	add	r0, r4, #40	; 0x28
    3934:	e6bf1f31 	rev	r1, r1
    3938:	e0878003 	add	r8, r7, r3
    393c:	e0851001 	add	r1, r5, r1
    3940:	e1a06003 	mov	r6, r3
    3944:	ebffff24 	bl	35dc <memmove>
    3948:	e3a0330a 	mov	r3, #671088640	; 0x28000000
    394c:	e5843010 	str	r3, [r4, #16]
    3950:	e1a02006 	mov	r2, r6
    3954:	e5951008 	ldr	r1, [r5, #8]
    3958:	e0840007 	add	r0, r4, r7
    395c:	e6bf6f36 	rev	r6, r6
    3960:	e6bf7f37 	rev	r7, r7
    3964:	e6bf1f31 	rev	r1, r1
    3968:	e0851001 	add	r1, r5, r1
    396c:	ebffff1a 	bl	35dc <memmove>
    3970:	e5847008 	str	r7, [r4, #8]
    3974:	e5846024 	str	r6, [r4, #36]	; 0x24
    3978:	e0840008 	add	r0, r4, r8
    397c:	e595100c 	ldr	r1, [r5, #12]
    3980:	e6bf8f38 	rev	r8, r8
    3984:	e5952020 	ldr	r2, [r5, #32]
    3988:	e6bf1f31 	rev	r1, r1
    398c:	e0851001 	add	r1, r5, r1
    3990:	e6bf2f32 	rev	r2, r2
    3994:	ebffff10 	bl	35dc <memmove>
    3998:	e584800c 	str	r8, [r4, #12]
    399c:	e5953020 	ldr	r3, [r5, #32]
    39a0:	e5843020 	str	r3, [r4, #32]
    39a4:	e8bd81f0 	pop	{r4, r5, r6, r7, r8, pc}

000039a8 <_fdt_add_property>:
    39a8:	e92d4ff8 	push	{r3, r4, r5, r6, r7, r8, r9, sl, fp, lr}
    39ac:	e1a07002 	mov	r7, r2
    39b0:	e1a0a003 	mov	sl, r3
    39b4:	e1a04000 	mov	r4, r0
    39b8:	e59d6028 	ldr	r6, [sp, #40]	; 0x28
    39bc:	eb0005e9 	bl	5168 <_fdt_check_node_offset>
    39c0:	e2509000 	subs	r9, r0, #0
    39c4:	b1a05009 	movlt	r5, r9
    39c8:	ba000027 	blt	3a6c <_fdt_add_property+0xc4>
    39cc:	e1a00007 	mov	r0, r7
    39d0:	e594800c 	ldr	r8, [r4, #12]
    39d4:	ebffff0f 	bl	3618 <strlen>
    39d8:	e5941020 	ldr	r1, [r4, #32]
    39dc:	e6bf8f38 	rev	r8, r8
    39e0:	e1a02007 	mov	r2, r7
    39e4:	e0848008 	add	r8, r4, r8
    39e8:	e6bf1f31 	rev	r1, r1
    39ec:	e1a0b000 	mov	fp, r0
    39f0:	e1a00008 	mov	r0, r8
    39f4:	eb000630 	bl	52bc <_fdt_find_string>
    39f8:	e2502000 	subs	r2, r0, #0
    39fc:	0a00001c 	beq	3a74 <_fdt_add_property+0xcc>
    3a00:	e0685002 	rsb	r5, r8, r2
    3a04:	e3550000 	cmp	r5, #0
    3a08:	ba000017 	blt	3a6c <_fdt_add_property+0xc4>
    3a0c:	e5941008 	ldr	r1, [r4, #8]
    3a10:	e28a3003 	add	r3, sl, #3
    3a14:	e3c33003 	bic	r3, r3, #3
    3a18:	e1a00004 	mov	r0, r4
    3a1c:	e6bf1f31 	rev	r1, r1
    3a20:	e283300c 	add	r3, r3, #12
    3a24:	e0819009 	add	r9, r1, r9
    3a28:	e3a02000 	mov	r2, #0
    3a2c:	e0841009 	add	r1, r4, r9
    3a30:	e5861000 	str	r1, [r6]
    3a34:	ebffffa5 	bl	38d0 <_fdt_splice_struct>
    3a38:	e3500000 	cmp	r0, #0
    3a3c:	11a05000 	movne	r5, r0
    3a40:	1a000009 	bne	3a6c <_fdt_add_property+0xc4>
    3a44:	e5963000 	ldr	r3, [r6]
    3a48:	e3a01403 	mov	r1, #50331648	; 0x3000000
    3a4c:	e6bf2f35 	rev	r2, r5
    3a50:	e1a05000 	mov	r5, r0
    3a54:	e6bfaf3a 	rev	sl, sl
    3a58:	e5831000 	str	r1, [r3]
    3a5c:	e5963000 	ldr	r3, [r6]
    3a60:	e5832008 	str	r2, [r3, #8]
    3a64:	e5963000 	ldr	r3, [r6]
    3a68:	e583a004 	str	sl, [r3, #4]
    3a6c:	e1a00005 	mov	r0, r5
    3a70:	e8bd8ff8 	pop	{r3, r4, r5, r6, r7, r8, r9, sl, fp, pc}
    3a74:	e5945020 	ldr	r5, [r4, #32]
    3a78:	e28bb001 	add	fp, fp, #1
    3a7c:	e594100c 	ldr	r1, [r4, #12]
    3a80:	e1a00004 	mov	r0, r4
    3a84:	e6bf5f35 	rev	r5, r5
    3a88:	e1a0300b 	mov	r3, fp
    3a8c:	e6bf1f31 	rev	r1, r1
    3a90:	e0811005 	add	r1, r1, r5
    3a94:	e0841001 	add	r1, r4, r1
    3a98:	ebffff59 	bl	3804 <_fdt_splice>
    3a9c:	e3500000 	cmp	r0, #0
    3aa0:	11a05000 	movne	r5, r0
    3aa4:	1affffd6 	bne	3a04 <_fdt_add_property+0x5c>
    3aa8:	e5943020 	ldr	r3, [r4, #32]
    3aac:	e0885005 	add	r5, r8, r5
    3ab0:	e1a0200b 	mov	r2, fp
    3ab4:	e1a01007 	mov	r1, r7
    3ab8:	e6bf3f33 	rev	r3, r3
    3abc:	e1a00005 	mov	r0, r5
    3ac0:	e083b00b 	add	fp, r3, fp
    3ac4:	e0685005 	rsb	r5, r8, r5
    3ac8:	e6bfbf3b 	rev	fp, fp
    3acc:	e584b020 	str	fp, [r4, #32]
    3ad0:	ebfffe88 	bl	34f8 <memcpy>
    3ad4:	eaffffca 	b	3a04 <_fdt_add_property+0x5c>

00003ad8 <_fdt_rw_check_header>:
    3ad8:	e92d4038 	push	{r3, r4, r5, lr}
    3adc:	e1a04000 	mov	r4, r0
    3ae0:	eb00052f 	bl	4fa4 <fdt_check_header>
    3ae4:	e3500000 	cmp	r0, #0
    3ae8:	18bd8038 	popne	{r3, r4, r5, pc}
    3aec:	e5945014 	ldr	r5, [r4, #20]
    3af0:	e6bf5f35 	rev	r5, r5
    3af4:	e3550010 	cmp	r5, #16
    3af8:	9a00000a 	bls	3b28 <_fdt_rw_check_header+0x50>
    3afc:	e5942024 	ldr	r2, [r4, #36]	; 0x24
    3b00:	e1a00004 	mov	r0, r4
    3b04:	e3a01010 	mov	r1, #16
    3b08:	e6bf2f32 	rev	r2, r2
    3b0c:	ebffff23 	bl	37a0 <_fdt_blocks_misordered>
    3b10:	e3500000 	cmp	r0, #0
    3b14:	1a000005 	bne	3b30 <_fdt_rw_check_header+0x58>
    3b18:	e3550011 	cmp	r5, #17
    3b1c:	13a03411 	movne	r3, #285212672	; 0x11000000
    3b20:	15843014 	strne	r3, [r4, #20]
    3b24:	e8bd8038 	pop	{r3, r4, r5, pc}
    3b28:	e3e00009 	mvn	r0, #9
    3b2c:	e8bd8038 	pop	{r3, r4, r5, pc}
    3b30:	e3e0000b 	mvn	r0, #11
    3b34:	e8bd8038 	pop	{r3, r4, r5, pc}

00003b38 <fdt_add_mem_rsv>:
    3b38:	e92d4ff8 	push	{r3, r4, r5, r6, r7, r8, r9, sl, fp, lr}
    3b3c:	e1a09002 	mov	r9, r2
    3b40:	e1a0a003 	mov	sl, r3
    3b44:	e1a04000 	mov	r4, r0
    3b48:	e59d8028 	ldr	r8, [sp, #40]	; 0x28
    3b4c:	e59d702c 	ldr	r7, [sp, #44]	; 0x2c
    3b50:	ebffffe0 	bl	3ad8 <_fdt_rw_check_header>
    3b54:	e2505000 	subs	r5, r0, #0
    3b58:	0a000001 	beq	3b64 <fdt_add_mem_rsv+0x2c>
    3b5c:	e1a00005 	mov	r0, r5
    3b60:	e8bd8ff8 	pop	{r3, r4, r5, r6, r7, r8, r9, sl, fp, pc}
    3b64:	e1a00004 	mov	r0, r4
    3b68:	eb000209 	bl	4394 <fdt_num_mem_rsv>
    3b6c:	e5941010 	ldr	r1, [r4, #16]
    3b70:	e1a02005 	mov	r2, r5
    3b74:	e3a03001 	mov	r3, #1
    3b78:	e6bf1f31 	rev	r1, r1
    3b7c:	e1a0b000 	mov	fp, r0
    3b80:	e1a00004 	mov	r0, r4
    3b84:	e0844001 	add	r4, r4, r1
    3b88:	e084620b 	add	r6, r4, fp, lsl #4
    3b8c:	e1a01006 	mov	r1, r6
    3b90:	ebffff38 	bl	3878 <_fdt_splice_mem_rsv>
    3b94:	e3500000 	cmp	r0, #0
    3b98:	18bd8ff8 	popne	{r3, r4, r5, r6, r7, r8, r9, sl, fp, pc}
    3b9c:	e6bfaf3a 	rev	sl, sl
    3ba0:	e6bf9f39 	rev	r9, r9
    3ba4:	e784a20b 	str	sl, [r4, fp, lsl #4]
    3ba8:	e6bf8f38 	rev	r8, r8
    3bac:	e6bf7f37 	rev	r7, r7
    3bb0:	e5869004 	str	r9, [r6, #4]
    3bb4:	e586800c 	str	r8, [r6, #12]
    3bb8:	e5867008 	str	r7, [r6, #8]
    3bbc:	e8bd8ff8 	pop	{r3, r4, r5, r6, r7, r8, r9, sl, fp, pc}

00003bc0 <fdt_del_mem_rsv>:
    3bc0:	e92d41f0 	push	{r4, r5, r6, r7, r8, lr}
    3bc4:	e1a04000 	mov	r4, r0
    3bc8:	e5903010 	ldr	r3, [r0, #16]
    3bcc:	e1a06001 	mov	r6, r1
    3bd0:	e6bf7f33 	rev	r7, r3
    3bd4:	ebffffbf 	bl	3ad8 <_fdt_rw_check_header>
    3bd8:	e2505000 	subs	r5, r0, #0
    3bdc:	0a000001 	beq	3be8 <fdt_del_mem_rsv+0x28>
    3be0:	e1a00005 	mov	r0, r5
    3be4:	e8bd81f0 	pop	{r4, r5, r6, r7, r8, pc}
    3be8:	e1a00004 	mov	r0, r4
    3bec:	eb0001e8 	bl	4394 <fdt_num_mem_rsv>
    3bf0:	e1560000 	cmp	r6, r0
    3bf4:	aa000006 	bge	3c14 <fdt_del_mem_rsv+0x54>
    3bf8:	e0841007 	add	r1, r4, r7
    3bfc:	e1a00004 	mov	r0, r4
    3c00:	e0811206 	add	r1, r1, r6, lsl #4
    3c04:	e1a03005 	mov	r3, r5
    3c08:	e3a02001 	mov	r2, #1
    3c0c:	e8bd41f0 	pop	{r4, r5, r6, r7, r8, lr}
    3c10:	eaffff18 	b	3878 <_fdt_splice_mem_rsv>
    3c14:	e3e00000 	mvn	r0, #0
    3c18:	e8bd81f0 	pop	{r4, r5, r6, r7, r8, pc}

00003c1c <fdt_set_name>:
    3c1c:	e92d40f0 	push	{r4, r5, r6, r7, lr}
    3c20:	e24dd00c 	sub	sp, sp, #12
    3c24:	e1a06001 	mov	r6, r1
    3c28:	e1a05002 	mov	r5, r2
    3c2c:	e1a04000 	mov	r4, r0
    3c30:	ebffffa8 	bl	3ad8 <_fdt_rw_check_header>
    3c34:	e3500000 	cmp	r0, #0
    3c38:	0a000001 	beq	3c44 <fdt_set_name+0x28>
    3c3c:	e28dd00c 	add	sp, sp, #12
    3c40:	e8bd80f0 	pop	{r4, r5, r6, r7, pc}
    3c44:	e1a01006 	mov	r1, r6
    3c48:	e1a00004 	mov	r0, r4
    3c4c:	e28d2004 	add	r2, sp, #4
    3c50:	eb000224 	bl	44e8 <fdt_get_name>
    3c54:	e2506000 	subs	r6, r0, #0
    3c58:	059d0004 	ldreq	r0, [sp, #4]
    3c5c:	0afffff6 	beq	3c3c <fdt_set_name+0x20>
    3c60:	e1a00005 	mov	r0, r5
    3c64:	ebfffe6b 	bl	3618 <strlen>
    3c68:	e59d2004 	ldr	r2, [sp, #4]
    3c6c:	e1a01006 	mov	r1, r6
    3c70:	e2822004 	add	r2, r2, #4
    3c74:	e3c22003 	bic	r2, r2, #3
    3c78:	e2803004 	add	r3, r0, #4
    3c7c:	e1a07000 	mov	r7, r0
    3c80:	e3c33003 	bic	r3, r3, #3
    3c84:	e1a00004 	mov	r0, r4
    3c88:	ebffff10 	bl	38d0 <_fdt_splice_struct>
    3c8c:	e2504000 	subs	r4, r0, #0
    3c90:	11a00004 	movne	r0, r4
    3c94:	1affffe8 	bne	3c3c <fdt_set_name+0x20>
    3c98:	e1a00006 	mov	r0, r6
    3c9c:	e1a01005 	mov	r1, r5
    3ca0:	e2872001 	add	r2, r7, #1
    3ca4:	ebfffe13 	bl	34f8 <memcpy>
    3ca8:	e1a00004 	mov	r0, r4
    3cac:	e28dd00c 	add	sp, sp, #12
    3cb0:	e8bd80f0 	pop	{r4, r5, r6, r7, pc}

00003cb4 <fdt_setprop>:
    3cb4:	e92d40f0 	push	{r4, r5, r6, r7, lr}
    3cb8:	e24dd014 	sub	sp, sp, #20
    3cbc:	e1a06001 	mov	r6, r1
    3cc0:	e1a05002 	mov	r5, r2
    3cc4:	e1a07003 	mov	r7, r3
    3cc8:	e1a04000 	mov	r4, r0
    3ccc:	ebffff81 	bl	3ad8 <_fdt_rw_check_header>
    3cd0:	e3500000 	cmp	r0, #0
    3cd4:	0a000001 	beq	3ce0 <fdt_setprop+0x2c>
    3cd8:	e28dd014 	add	sp, sp, #20
    3cdc:	e8bd80f0 	pop	{r4, r5, r6, r7, pc}
    3ce0:	e1a00004 	mov	r0, r4
    3ce4:	e1a01006 	mov	r1, r6
    3ce8:	e1a02005 	mov	r2, r5
    3cec:	e28d300c 	add	r3, sp, #12
    3cf0:	eb000267 	bl	4694 <fdt_get_property>
    3cf4:	e3500000 	cmp	r0, #0
    3cf8:	e58d0008 	str	r0, [sp, #8]
    3cfc:	059d000c 	ldreq	r0, [sp, #12]
    3d00:	0a000015 	beq	3d5c <fdt_setprop+0xa8>
    3d04:	e59d1028 	ldr	r1, [sp, #40]	; 0x28
    3d08:	e59d200c 	ldr	r2, [sp, #12]
    3d0c:	e2813003 	add	r3, r1, #3
    3d10:	e280100c 	add	r1, r0, #12
    3d14:	e2822003 	add	r2, r2, #3
    3d18:	e3c33003 	bic	r3, r3, #3
    3d1c:	e1a00004 	mov	r0, r4
    3d20:	e3c22003 	bic	r2, r2, #3
    3d24:	ebfffee9 	bl	38d0 <_fdt_splice_struct>
    3d28:	e3500000 	cmp	r0, #0
    3d2c:	1a00000a 	bne	3d5c <fdt_setprop+0xa8>
    3d30:	e59d0008 	ldr	r0, [sp, #8]
    3d34:	e59d2028 	ldr	r2, [sp, #40]	; 0x28
    3d38:	e6bf3f32 	rev	r3, r2
    3d3c:	e5803004 	str	r3, [r0, #4]
    3d40:	e1a01007 	mov	r1, r7
    3d44:	e59d2028 	ldr	r2, [sp, #40]	; 0x28
    3d48:	e280000c 	add	r0, r0, #12
    3d4c:	ebfffde9 	bl	34f8 <memcpy>
    3d50:	e3a00000 	mov	r0, #0
    3d54:	e28dd014 	add	sp, sp, #20
    3d58:	e8bd80f0 	pop	{r4, r5, r6, r7, pc}
    3d5c:	e3700001 	cmn	r0, #1
    3d60:	0a000003 	beq	3d74 <fdt_setprop+0xc0>
    3d64:	e3500000 	cmp	r0, #0
    3d68:	1affffda 	bne	3cd8 <fdt_setprop+0x24>
    3d6c:	e59d0008 	ldr	r0, [sp, #8]
    3d70:	eafffff2 	b	3d40 <fdt_setprop+0x8c>
    3d74:	e28dc008 	add	ip, sp, #8
    3d78:	e1a00004 	mov	r0, r4
    3d7c:	e1a01006 	mov	r1, r6
    3d80:	e1a02005 	mov	r2, r5
    3d84:	e59d3028 	ldr	r3, [sp, #40]	; 0x28
    3d88:	e58dc000 	str	ip, [sp]
    3d8c:	ebffff05 	bl	39a8 <_fdt_add_property>
    3d90:	eafffff3 	b	3d64 <fdt_setprop+0xb0>

00003d94 <fdt_appendprop>:
    3d94:	e92d40f0 	push	{r4, r5, r6, r7, lr}
    3d98:	e24dd014 	sub	sp, sp, #20
    3d9c:	e1a06001 	mov	r6, r1
    3da0:	e1a05002 	mov	r5, r2
    3da4:	e1a07003 	mov	r7, r3
    3da8:	e1a04000 	mov	r4, r0
    3dac:	ebffff49 	bl	3ad8 <_fdt_rw_check_header>
    3db0:	e3500000 	cmp	r0, #0
    3db4:	0a000001 	beq	3dc0 <fdt_appendprop+0x2c>
    3db8:	e28dd014 	add	sp, sp, #20
    3dbc:	e8bd80f0 	pop	{r4, r5, r6, r7, pc}
    3dc0:	e1a01006 	mov	r1, r6
    3dc4:	e1a00004 	mov	r0, r4
    3dc8:	e1a02005 	mov	r2, r5
    3dcc:	e28d300c 	add	r3, sp, #12
    3dd0:	eb00022f 	bl	4694 <fdt_get_property>
    3dd4:	e3500000 	cmp	r0, #0
    3dd8:	e1a01000 	mov	r1, r0
    3ddc:	e58d0008 	str	r0, [sp, #8]
    3de0:	0a000018 	beq	3e48 <fdt_appendprop+0xb4>
    3de4:	e59d200c 	ldr	r2, [sp, #12]
    3de8:	e1a00004 	mov	r0, r4
    3dec:	e59d3028 	ldr	r3, [sp, #40]	; 0x28
    3df0:	e281100c 	add	r1, r1, #12
    3df4:	e0834002 	add	r4, r3, r2
    3df8:	e2822003 	add	r2, r2, #3
    3dfc:	e2843003 	add	r3, r4, #3
    3e00:	e3c22003 	bic	r2, r2, #3
    3e04:	e3c33003 	bic	r3, r3, #3
    3e08:	ebfffeb0 	bl	38d0 <_fdt_splice_struct>
    3e0c:	e2505000 	subs	r5, r0, #0
    3e10:	11a00005 	movne	r0, r5
    3e14:	1affffe7 	bne	3db8 <fdt_appendprop+0x24>
    3e18:	e59d3008 	ldr	r3, [sp, #8]
    3e1c:	e6bf4f34 	rev	r4, r4
    3e20:	e59d000c 	ldr	r0, [sp, #12]
    3e24:	e1a01007 	mov	r1, r7
    3e28:	e59d2028 	ldr	r2, [sp, #40]	; 0x28
    3e2c:	e0830000 	add	r0, r3, r0
    3e30:	e5834004 	str	r4, [r3, #4]
    3e34:	e280000c 	add	r0, r0, #12
    3e38:	ebfffdae 	bl	34f8 <memcpy>
    3e3c:	e1a00005 	mov	r0, r5
    3e40:	e28dd014 	add	sp, sp, #20
    3e44:	e8bd80f0 	pop	{r4, r5, r6, r7, pc}
    3e48:	e1a00004 	mov	r0, r4
    3e4c:	e28dc008 	add	ip, sp, #8
    3e50:	e1a01006 	mov	r1, r6
    3e54:	e1a02005 	mov	r2, r5
    3e58:	e59d3028 	ldr	r3, [sp, #40]	; 0x28
    3e5c:	e58dc000 	str	ip, [sp]
    3e60:	ebfffed0 	bl	39a8 <_fdt_add_property>
    3e64:	e2504000 	subs	r4, r0, #0
    3e68:	11a00004 	movne	r0, r4
    3e6c:	1affffd1 	bne	3db8 <fdt_appendprop+0x24>
    3e70:	e59d0008 	ldr	r0, [sp, #8]
    3e74:	e1a01007 	mov	r1, r7
    3e78:	e59d2028 	ldr	r2, [sp, #40]	; 0x28
    3e7c:	e280000c 	add	r0, r0, #12
    3e80:	ebfffd9c 	bl	34f8 <memcpy>
    3e84:	e1a00004 	mov	r0, r4
    3e88:	eaffffca 	b	3db8 <fdt_appendprop+0x24>

00003e8c <fdt_delprop>:
    3e8c:	e92d40f0 	push	{r4, r5, r6, r7, lr}
    3e90:	e24dd00c 	sub	sp, sp, #12
    3e94:	e1a07001 	mov	r7, r1
    3e98:	e1a06002 	mov	r6, r2
    3e9c:	e1a05000 	mov	r5, r0
    3ea0:	ebffff0c 	bl	3ad8 <_fdt_rw_check_header>
    3ea4:	e2504000 	subs	r4, r0, #0
    3ea8:	11a00004 	movne	r0, r4
    3eac:	0a000001 	beq	3eb8 <fdt_delprop+0x2c>
    3eb0:	e28dd00c 	add	sp, sp, #12
    3eb4:	e8bd80f0 	pop	{r4, r5, r6, r7, pc}
    3eb8:	e1a01007 	mov	r1, r7
    3ebc:	e1a02006 	mov	r2, r6
    3ec0:	e1a00005 	mov	r0, r5
    3ec4:	e28d3004 	add	r3, sp, #4
    3ec8:	eb0001f1 	bl	4694 <fdt_get_property>
    3ecc:	e2501000 	subs	r1, r0, #0
    3ed0:	059d0004 	ldreq	r0, [sp, #4]
    3ed4:	0afffff5 	beq	3eb0 <fdt_delprop+0x24>
    3ed8:	e59d2004 	ldr	r2, [sp, #4]
    3edc:	e1a00005 	mov	r0, r5
    3ee0:	e1a03004 	mov	r3, r4
    3ee4:	e2822003 	add	r2, r2, #3
    3ee8:	e3c22003 	bic	r2, r2, #3
    3eec:	e282200c 	add	r2, r2, #12
    3ef0:	ebfffe76 	bl	38d0 <_fdt_splice_struct>
    3ef4:	e28dd00c 	add	sp, sp, #12
    3ef8:	e8bd80f0 	pop	{r4, r5, r6, r7, pc}

00003efc <fdt_add_subnode_namelen>:
    3efc:	e92d4ff0 	push	{r4, r5, r6, r7, r8, r9, sl, fp, lr}
    3f00:	e24dd00c 	sub	sp, sp, #12
    3f04:	e1a05001 	mov	r5, r1
    3f08:	e1a07002 	mov	r7, r2
    3f0c:	e1a06003 	mov	r6, r3
    3f10:	e1a04000 	mov	r4, r0
    3f14:	ebfffeef 	bl	3ad8 <_fdt_rw_check_header>
    3f18:	e3500000 	cmp	r0, #0
    3f1c:	0a000001 	beq	3f28 <fdt_add_subnode_namelen+0x2c>
    3f20:	e28dd00c 	add	sp, sp, #12
    3f24:	e8bd8ff0 	pop	{r4, r5, r6, r7, r8, r9, sl, fp, pc}
    3f28:	e1a00004 	mov	r0, r4
    3f2c:	e1a01005 	mov	r1, r5
    3f30:	e1a02007 	mov	r2, r7
    3f34:	e1a03006 	mov	r3, r6
    3f38:	eb000126 	bl	43d8 <fdt_subnode_offset_namelen>
    3f3c:	e3500000 	cmp	r0, #0
    3f40:	aa000029 	bge	3fec <fdt_add_subnode_namelen+0xf0>
    3f44:	e3700001 	cmn	r0, #1
    3f48:	1afffff4 	bne	3f20 <fdt_add_subnode_namelen+0x24>
    3f4c:	e28d8004 	add	r8, sp, #4
    3f50:	e1a01005 	mov	r1, r5
    3f54:	e1a00004 	mov	r0, r4
    3f58:	e1a02008 	mov	r2, r8
    3f5c:	eb000441 	bl	5068 <fdt_next_tag>
    3f60:	e59d5004 	ldr	r5, [sp, #4]
    3f64:	e1a00004 	mov	r0, r4
    3f68:	e1a02008 	mov	r2, r8
    3f6c:	e1a01005 	mov	r1, r5
    3f70:	eb00043c 	bl	5068 <fdt_next_tag>
    3f74:	e2400003 	sub	r0, r0, #3
    3f78:	e3500001 	cmp	r0, #1
    3f7c:	9afffff7 	bls	3f60 <fdt_add_subnode_namelen+0x64>
    3f80:	e594a008 	ldr	sl, [r4, #8]
    3f84:	e2868004 	add	r8, r6, #4
    3f88:	e3c88003 	bic	r8, r8, #3
    3f8c:	e1a00004 	mov	r0, r4
    3f90:	e6bfaf3a 	rev	sl, sl
    3f94:	e2883008 	add	r3, r8, #8
    3f98:	e085a00a 	add	sl, r5, sl
    3f9c:	e3a02000 	mov	r2, #0
    3fa0:	e084900a 	add	r9, r4, sl
    3fa4:	e1a01009 	mov	r1, r9
    3fa8:	ebfffe48 	bl	38d0 <_fdt_splice_struct>
    3fac:	e3500000 	cmp	r0, #0
    3fb0:	1affffda 	bne	3f20 <fdt_add_subnode_namelen+0x24>
    3fb4:	e3580000 	cmp	r8, #0
    3fb8:	e3a03401 	mov	r3, #16777216	; 0x1000000
    3fbc:	e289b004 	add	fp, r9, #4
    3fc0:	e784300a 	str	r3, [r4, sl]
    3fc4:	1a00000a 	bne	3ff4 <fdt_add_subnode_namelen+0xf8>
    3fc8:	e0898008 	add	r8, r9, r8
    3fcc:	e1a0000b 	mov	r0, fp
    3fd0:	e1a01007 	mov	r1, r7
    3fd4:	e1a02006 	mov	r2, r6
    3fd8:	ebfffd46 	bl	34f8 <memcpy>
    3fdc:	e3a03402 	mov	r3, #33554432	; 0x2000000
    3fe0:	e1a00005 	mov	r0, r5
    3fe4:	e5883004 	str	r3, [r8, #4]
    3fe8:	eaffffcc 	b	3f20 <fdt_add_subnode_namelen+0x24>
    3fec:	e3e00001 	mvn	r0, #1
    3ff0:	eaffffca 	b	3f20 <fdt_add_subnode_namelen+0x24>
    3ff4:	e1a0000b 	mov	r0, fp
    3ff8:	e1a01008 	mov	r1, r8
    3ffc:	ebfffdbf 	bl	3700 <__memzero>
    4000:	eafffff0 	b	3fc8 <fdt_add_subnode_namelen+0xcc>

00004004 <fdt_add_subnode>:
    4004:	e92d4070 	push	{r4, r5, r6, lr}
    4008:	e1a05000 	mov	r5, r0
    400c:	e1a00002 	mov	r0, r2
    4010:	e1a04002 	mov	r4, r2
    4014:	e1a06001 	mov	r6, r1
    4018:	ebfffd7e 	bl	3618 <strlen>
    401c:	e1a01006 	mov	r1, r6
    4020:	e1a02004 	mov	r2, r4
    4024:	e1a03000 	mov	r3, r0
    4028:	e1a00005 	mov	r0, r5
    402c:	e8bd4070 	pop	{r4, r5, r6, lr}
    4030:	eaffffb1 	b	3efc <fdt_add_subnode_namelen>

00004034 <fdt_del_node>:
    4034:	e92d4070 	push	{r4, r5, r6, lr}
    4038:	e1a04001 	mov	r4, r1
    403c:	e1a05000 	mov	r5, r0
    4040:	ebfffea4 	bl	3ad8 <_fdt_rw_check_header>
    4044:	e2506000 	subs	r6, r0, #0
    4048:	0a000001 	beq	4054 <fdt_del_node+0x20>
    404c:	e1a00006 	mov	r0, r6
    4050:	e8bd8070 	pop	{r4, r5, r6, pc}
    4054:	e1a00005 	mov	r0, r5
    4058:	e1a01004 	mov	r1, r4
    405c:	eb0003a7 	bl	4f00 <_fdt_node_end_offset>
    4060:	e3500000 	cmp	r0, #0
    4064:	b8bd8070 	poplt	{r4, r5, r6, pc}
    4068:	e5951008 	ldr	r1, [r5, #8]
    406c:	e0642000 	rsb	r2, r4, r0
    4070:	e1a03006 	mov	r3, r6
    4074:	e1a00005 	mov	r0, r5
    4078:	e6bf1f31 	rev	r1, r1
    407c:	e0811004 	add	r1, r1, r4
    4080:	e0851001 	add	r1, r5, r1
    4084:	e8bd4070 	pop	{r4, r5, r6, lr}
    4088:	eafffe10 	b	38d0 <_fdt_splice_struct>

0000408c <fdt_open_into>:
    408c:	e92d47f0 	push	{r4, r5, r6, r7, r8, r9, sl, lr}
    4090:	e24dd008 	sub	sp, sp, #8
    4094:	e5903004 	ldr	r3, [r0, #4]
    4098:	e1a04000 	mov	r4, r0
    409c:	e1a05001 	mov	r5, r1
    40a0:	e1a08002 	mov	r8, r2
    40a4:	e6bfaf33 	rev	sl, r3
    40a8:	eb0003bd 	bl	4fa4 <fdt_check_header>
    40ac:	e2507000 	subs	r7, r0, #0
    40b0:	11a00007 	movne	r0, r7
    40b4:	0a000001 	beq	40c0 <fdt_open_into+0x34>
    40b8:	e28dd008 	add	sp, sp, #8
    40bc:	e8bd87f0 	pop	{r4, r5, r6, r7, r8, r9, sl, pc}
    40c0:	e1a00004 	mov	r0, r4
    40c4:	eb0000b2 	bl	4394 <fdt_num_mem_rsv>
    40c8:	e5943014 	ldr	r3, [r4, #20]
    40cc:	e6bf3f33 	rev	r3, r3
    40d0:	e3530010 	cmp	r3, #16
    40d4:	e2800001 	add	r0, r0, #1
    40d8:	e1a09200 	lsl	r9, r0, #4
    40dc:	8a00003c 	bhi	41d4 <fdt_open_into+0x148>
    40e0:	e28d6008 	add	r6, sp, #8
    40e4:	e1a01007 	mov	r1, r7
    40e8:	e5267004 	str	r7, [r6, #-4]!
    40ec:	ea000000 	b	40f4 <fdt_open_into+0x68>
    40f0:	e59d1004 	ldr	r1, [sp, #4]
    40f4:	e1a00004 	mov	r0, r4
    40f8:	e1a02006 	mov	r2, r6
    40fc:	eb0003d9 	bl	5068 <fdt_next_tag>
    4100:	e3500009 	cmp	r0, #9
    4104:	1afffff9 	bne	40f0 <fdt_open_into+0x64>
    4108:	e59d6004 	ldr	r6, [sp, #4]
    410c:	e3560000 	cmp	r6, #0
    4110:	b1a00006 	movlt	r0, r6
    4114:	baffffe7 	blt	40b8 <fdt_open_into+0x2c>
    4118:	e1a00004 	mov	r0, r4
    411c:	e1a01009 	mov	r1, r9
    4120:	e1a02006 	mov	r2, r6
    4124:	ebfffd9d 	bl	37a0 <_fdt_blocks_misordered>
    4128:	e3500000 	cmp	r0, #0
    412c:	0a00002c 	beq	41e4 <fdt_open_into+0x158>
    4130:	e5943020 	ldr	r3, [r4, #32]
    4134:	e2897028 	add	r7, r9, #40	; 0x28
    4138:	e0877006 	add	r7, r7, r6
    413c:	e6bf3f33 	rev	r3, r3
    4140:	e0877003 	add	r7, r7, r3
    4144:	e1580007 	cmp	r8, r7
    4148:	ba00003b 	blt	423c <fdt_open_into+0x1b0>
    414c:	e0853007 	add	r3, r5, r7
    4150:	e1540003 	cmp	r4, r3
    4154:	2a000030 	bcs	421c <fdt_open_into+0x190>
    4158:	e084a00a 	add	sl, r4, sl
    415c:	e15a0005 	cmp	sl, r5
    4160:	91a0a005 	movls	sl, r5
    4164:	9a000003 	bls	4178 <fdt_open_into+0xec>
    4168:	e08a2007 	add	r2, sl, r7
    416c:	e0853008 	add	r3, r5, r8
    4170:	e1520003 	cmp	r2, r3
    4174:	8a000030 	bhi	423c <fdt_open_into+0x1b0>
    4178:	e1a00004 	mov	r0, r4
    417c:	e1a0100a 	mov	r1, sl
    4180:	e1a02009 	mov	r2, r9
    4184:	e1a03006 	mov	r3, r6
    4188:	ebfffde3 	bl	391c <_fdt_packblocks>
    418c:	e1a00005 	mov	r0, r5
    4190:	e1a0100a 	mov	r1, sl
    4194:	e1a02007 	mov	r2, r7
    4198:	e6bf8f38 	rev	r8, r8
    419c:	ebfffd0e 	bl	35dc <memmove>
    41a0:	e3a02411 	mov	r2, #285212672	; 0x11000000
    41a4:	e5858004 	str	r8, [r5, #4]
    41a8:	e3a03edd 	mov	r3, #3536	; 0xdd0
    41ac:	e5852014 	str	r2, [r5, #20]
    41b0:	e34e3dfe 	movt	r3, #60926	; 0xedfe
    41b4:	e5853000 	str	r3, [r5]
    41b8:	e3a03201 	mov	r3, #268435456	; 0x10000000
    41bc:	e5853018 	str	r3, [r5, #24]
    41c0:	e3a00000 	mov	r0, #0
    41c4:	e594301c 	ldr	r3, [r4, #28]
    41c8:	e585301c 	str	r3, [r5, #28]
    41cc:	e28dd008 	add	sp, sp, #8
    41d0:	e8bd87f0 	pop	{r4, r5, r6, r7, r8, r9, sl, pc}
    41d4:	e5946024 	ldr	r6, [r4, #36]	; 0x24
    41d8:	e6bf6f36 	rev	r6, r6
    41dc:	e58d6004 	str	r6, [sp, #4]
    41e0:	eaffffcc 	b	4118 <fdt_open_into+0x8c>
    41e4:	e1a00004 	mov	r0, r4
    41e8:	e1a01005 	mov	r1, r5
    41ec:	e1a02008 	mov	r2, r8
    41f0:	eb000449 	bl	531c <fdt_move>
    41f4:	e3500000 	cmp	r0, #0
    41f8:	1affffae 	bne	40b8 <fdt_open_into+0x2c>
    41fc:	e59d2004 	ldr	r2, [sp, #4]
    4200:	e6bf8f38 	rev	r8, r8
    4204:	e3a03411 	mov	r3, #285212672	; 0x11000000
    4208:	e5858004 	str	r8, [r5, #4]
    420c:	e6bf2f32 	rev	r2, r2
    4210:	e5853014 	str	r3, [r5, #20]
    4214:	e5852024 	str	r2, [r5, #36]	; 0x24
    4218:	eaffffa6 	b	40b8 <fdt_open_into+0x2c>
    421c:	e1a00004 	mov	r0, r4
    4220:	e1a01005 	mov	r1, r5
    4224:	e1a02009 	mov	r2, r9
    4228:	e1a03006 	mov	r3, r6
    422c:	ebfffdba 	bl	391c <_fdt_packblocks>
    4230:	e1a00005 	mov	r0, r5
    4234:	e1a01005 	mov	r1, r5
    4238:	eaffffd5 	b	4194 <fdt_open_into+0x108>
    423c:	e3e00002 	mvn	r0, #2
    4240:	eaffff9c 	b	40b8 <fdt_open_into+0x2c>

00004244 <fdt_pack>:
    4244:	e92d4038 	push	{r3, r4, r5, lr}
    4248:	e1a04000 	mov	r4, r0
    424c:	ebfffe21 	bl	3ad8 <_fdt_rw_check_header>
    4250:	e2505000 	subs	r5, r0, #0
    4254:	1a00000f 	bne	4298 <fdt_pack+0x54>
    4258:	e1a00004 	mov	r0, r4
    425c:	eb00004c 	bl	4394 <fdt_num_mem_rsv>
    4260:	e5943024 	ldr	r3, [r4, #36]	; 0x24
    4264:	e1a01004 	mov	r1, r4
    4268:	e6bf3f33 	rev	r3, r3
    426c:	e2802001 	add	r2, r0, #1
    4270:	e1a00004 	mov	r0, r4
    4274:	e1a02202 	lsl	r2, r2, #4
    4278:	ebfffda7 	bl	391c <_fdt_packblocks>
    427c:	e594200c 	ldr	r2, [r4, #12]
    4280:	e5943020 	ldr	r3, [r4, #32]
    4284:	e6bf2f32 	rev	r2, r2
    4288:	e6bf3f33 	rev	r3, r3
    428c:	e0833002 	add	r3, r3, r2
    4290:	e6bf3f33 	rev	r3, r3
    4294:	e5843004 	str	r3, [r4, #4]
    4298:	e1a00005 	mov	r0, r5
    429c:	e8bd8038 	pop	{r3, r4, r5, pc}

000042a0 <_nextprop>:
    42a0:	e92d4070 	push	{r4, r5, r6, lr}
    42a4:	e24dd008 	sub	sp, sp, #8
    42a8:	e28d6004 	add	r6, sp, #4
    42ac:	e1a05000 	mov	r5, r0
    42b0:	e1a04001 	mov	r4, r1
    42b4:	e1a00005 	mov	r0, r5
    42b8:	e1a01004 	mov	r1, r4
    42bc:	e1a02006 	mov	r2, r6
    42c0:	eb000368 	bl	5068 <fdt_next_tag>
    42c4:	e3500003 	cmp	r0, #3
    42c8:	0a00000b 	beq	42fc <_nextprop+0x5c>
    42cc:	e3500009 	cmp	r0, #9
    42d0:	1a000004 	bne	42e8 <_nextprop+0x48>
    42d4:	e59d0004 	ldr	r0, [sp, #4]
    42d8:	e3500000 	cmp	r0, #0
    42dc:	a3e0000a 	mvnge	r0, #10
    42e0:	e28dd008 	add	sp, sp, #8
    42e4:	e8bd8070 	pop	{r4, r5, r6, pc}
    42e8:	e3500004 	cmp	r0, #4
    42ec:	e59d4004 	ldr	r4, [sp, #4]
    42f0:	0affffef 	beq	42b4 <_nextprop+0x14>
    42f4:	e3e00000 	mvn	r0, #0
    42f8:	eafffff8 	b	42e0 <_nextprop+0x40>
    42fc:	e1a00004 	mov	r0, r4
    4300:	e28dd008 	add	sp, sp, #8
    4304:	e8bd8070 	pop	{r4, r5, r6, pc}

00004308 <fdt_string>:
    4308:	e590300c 	ldr	r3, [r0, #12]
    430c:	e6bf3f33 	rev	r3, r3
    4310:	e0831001 	add	r1, r3, r1
    4314:	e0800001 	add	r0, r0, r1
    4318:	e12fff1e 	bx	lr

0000431c <fdt_get_mem_rsv>:
    431c:	e92d40f8 	push	{r3, r4, r5, r6, r7, lr}
    4320:	e1a05001 	mov	r5, r1
    4324:	e1a06002 	mov	r6, r2
    4328:	e1a07003 	mov	r7, r3
    432c:	e1a04000 	mov	r4, r0
    4330:	eb00031b 	bl	4fa4 <fdt_check_header>
    4334:	e3500000 	cmp	r0, #0
    4338:	18bd80f8 	popne	{r3, r4, r5, r6, r7, pc}
    433c:	e5942010 	ldr	r2, [r4, #16]
    4340:	e1a03205 	lsl	r3, r5, #4
    4344:	e6bf2f32 	rev	r2, r2
    4348:	e0842002 	add	r2, r4, r2
    434c:	e082c003 	add	ip, r2, r3
    4350:	e7921205 	ldr	r1, [r2, r5, lsl #4]
    4354:	e59c2004 	ldr	r2, [ip, #4]
    4358:	e6bf1f31 	rev	r1, r1
    435c:	e5861004 	str	r1, [r6, #4]
    4360:	e6bf2f32 	rev	r2, r2
    4364:	e5862000 	str	r2, [r6]
    4368:	e5942010 	ldr	r2, [r4, #16]
    436c:	e6bf2f32 	rev	r2, r2
    4370:	e0844002 	add	r4, r4, r2
    4374:	e0844003 	add	r4, r4, r3
    4378:	e5942008 	ldr	r2, [r4, #8]
    437c:	e594300c 	ldr	r3, [r4, #12]
    4380:	e6bf2f32 	rev	r2, r2
    4384:	e5872004 	str	r2, [r7, #4]
    4388:	e6bf3f33 	rev	r3, r3
    438c:	e5873000 	str	r3, [r7]
    4390:	e8bd80f8 	pop	{r3, r4, r5, r6, r7, pc}

00004394 <fdt_num_mem_rsv>:
    4394:	e1a03000 	mov	r3, r0
    4398:	e3a00000 	mov	r0, #0
    439c:	e52d4004 	push	{r4}		; (str r4, [sp, #-4]!)
    43a0:	e5931010 	ldr	r1, [r3, #16]
    43a4:	e6bf1f31 	rev	r1, r1
    43a8:	e0831001 	add	r1, r3, r1
    43ac:	ea000000 	b	43b4 <fdt_num_mem_rsv+0x20>
    43b0:	e2800001 	add	r0, r0, #1
    43b4:	e591c008 	ldr	ip, [r1, #8]
    43b8:	e2811010 	add	r1, r1, #16
    43bc:	e5114004 	ldr	r4, [r1, #-4]
    43c0:	e6bf3f3c 	rev	r3, ip
    43c4:	e6bf2f34 	rev	r2, r4
    43c8:	e192c003 	orrs	ip, r2, r3
    43cc:	1afffff7 	bne	43b0 <fdt_num_mem_rsv+0x1c>
    43d0:	e49d4004 	pop	{r4}		; (ldr r4, [sp], #4)
    43d4:	e12fff1e 	bx	lr

000043d8 <fdt_subnode_offset_namelen>:
    43d8:	e92d47f0 	push	{r4, r5, r6, r7, r8, r9, sl, lr}
    43dc:	e24dd008 	sub	sp, sp, #8
    43e0:	e1a04001 	mov	r4, r1
    43e4:	e1a08002 	mov	r8, r2
    43e8:	e1a07003 	mov	r7, r3
    43ec:	e1a05000 	mov	r5, r0
    43f0:	eb0002eb 	bl	4fa4 <fdt_check_header>
    43f4:	e3500000 	cmp	r0, #0
    43f8:	1a00001e 	bne	4478 <fdt_subnode_offset_namelen+0xa0>
    43fc:	e3540000 	cmp	r4, #0
    4400:	e58d0004 	str	r0, [sp, #4]
    4404:	ba00001a 	blt	4474 <fdt_subnode_offset_namelen+0x9c>
    4408:	e28d6004 	add	r6, sp, #4
    440c:	e287a001 	add	sl, r7, #1
    4410:	e1a01004 	mov	r1, r4
    4414:	e1a00005 	mov	r0, r5
    4418:	e1a02006 	mov	r2, r6
    441c:	eb000373 	bl	51f0 <fdt_next_node>
    4420:	e59dc004 	ldr	ip, [sp, #4]
    4424:	e3500000 	cmp	r0, #0
    4428:	a35c0000 	cmpge	ip, #0
    442c:	e1a04000 	mov	r4, r0
    4430:	ba00001c 	blt	44a8 <fdt_subnode_offset_namelen+0xd0>
    4434:	e35c0001 	cmp	ip, #1
    4438:	1afffff4 	bne	4410 <fdt_subnode_offset_namelen+0x38>
    443c:	e2841004 	add	r1, r4, #4
    4440:	e1a0200a 	mov	r2, sl
    4444:	e1a00005 	mov	r0, r5
    4448:	eb0002f3 	bl	501c <fdt_offset_ptr>
    444c:	e1a01008 	mov	r1, r8
    4450:	e1a02007 	mov	r2, r7
    4454:	e2509000 	subs	r9, r0, #0
    4458:	0affffec 	beq	4410 <fdt_subnode_offset_namelen+0x38>
    445c:	ebfffc75 	bl	3638 <memcmp>
    4460:	e3500000 	cmp	r0, #0
    4464:	1affffe9 	bne	4410 <fdt_subnode_offset_namelen+0x38>
    4468:	e7d93007 	ldrb	r3, [r9, r7]
    446c:	e3530000 	cmp	r3, #0
    4470:	1a000002 	bne	4480 <fdt_subnode_offset_namelen+0xa8>
    4474:	e1a00004 	mov	r0, r4
    4478:	e28dd008 	add	sp, sp, #8
    447c:	e8bd87f0 	pop	{r4, r5, r6, r7, r8, r9, sl, pc}
    4480:	e1a00008 	mov	r0, r8
    4484:	e3a01040 	mov	r1, #64	; 0x40
    4488:	e1a02007 	mov	r2, r7
    448c:	ebfffc7e 	bl	368c <memchr>
    4490:	e3500000 	cmp	r0, #0
    4494:	1affffdd 	bne	4410 <fdt_subnode_offset_namelen+0x38>
    4498:	e7d93007 	ldrb	r3, [r9, r7]
    449c:	e3530040 	cmp	r3, #64	; 0x40
    44a0:	1affffda 	bne	4410 <fdt_subnode_offset_namelen+0x38>
    44a4:	eafffff2 	b	4474 <fdt_subnode_offset_namelen+0x9c>
    44a8:	e35c0000 	cmp	ip, #0
    44ac:	aafffff0 	bge	4474 <fdt_subnode_offset_namelen+0x9c>
    44b0:	e3e00000 	mvn	r0, #0
    44b4:	eaffffef 	b	4478 <fdt_subnode_offset_namelen+0xa0>

000044b8 <fdt_subnode_offset>:
    44b8:	e92d4070 	push	{r4, r5, r6, lr}
    44bc:	e1a05000 	mov	r5, r0
    44c0:	e1a00002 	mov	r0, r2
    44c4:	e1a04002 	mov	r4, r2
    44c8:	e1a06001 	mov	r6, r1
    44cc:	ebfffc51 	bl	3618 <strlen>
    44d0:	e1a01006 	mov	r1, r6
    44d4:	e1a02004 	mov	r2, r4
    44d8:	e1a03000 	mov	r3, r0
    44dc:	e1a00005 	mov	r0, r5
    44e0:	e8bd4070 	pop	{r4, r5, r6, lr}
    44e4:	eaffffbb 	b	43d8 <fdt_subnode_offset_namelen>

000044e8 <fdt_get_name>:
    44e8:	e92d40f8 	push	{r3, r4, r5, r6, r7, lr}
    44ec:	e1a05000 	mov	r5, r0
    44f0:	e5903008 	ldr	r3, [r0, #8]
    44f4:	e1a06001 	mov	r6, r1
    44f8:	e1a04002 	mov	r4, r2
    44fc:	e6bf7f33 	rev	r7, r3
    4500:	eb0002a7 	bl	4fa4 <fdt_check_header>
    4504:	e3500000 	cmp	r0, #0
    4508:	0a000004 	beq	4520 <fdt_get_name+0x38>
    450c:	e3540000 	cmp	r4, #0
    4510:	15840000 	strne	r0, [r4]
    4514:	13a00000 	movne	r0, #0
    4518:	01a00004 	moveq	r0, r4
    451c:	e8bd80f8 	pop	{r3, r4, r5, r6, r7, pc}
    4520:	e1a00005 	mov	r0, r5
    4524:	e1a01006 	mov	r1, r6
    4528:	eb00030e 	bl	5168 <_fdt_check_node_offset>
    452c:	e3500000 	cmp	r0, #0
    4530:	bafffff5 	blt	450c <fdt_get_name+0x24>
    4534:	e0876006 	add	r6, r7, r6
    4538:	e3540000 	cmp	r4, #0
    453c:	e0855006 	add	r5, r5, r6
    4540:	e2855004 	add	r5, r5, #4
    4544:	0a000002 	beq	4554 <fdt_get_name+0x6c>
    4548:	e1a00005 	mov	r0, r5
    454c:	ebfffc31 	bl	3618 <strlen>
    4550:	e5840000 	str	r0, [r4]
    4554:	e1a00005 	mov	r0, r5
    4558:	e8bd80f8 	pop	{r3, r4, r5, r6, r7, pc}

0000455c <fdt_first_property_offset>:
    455c:	e92d4010 	push	{r4, lr}
    4560:	e1a04000 	mov	r4, r0
    4564:	eb0002ff 	bl	5168 <_fdt_check_node_offset>
    4568:	e2501000 	subs	r1, r0, #0
    456c:	b8bd8010 	poplt	{r4, pc}
    4570:	e1a00004 	mov	r0, r4
    4574:	e8bd4010 	pop	{r4, lr}
    4578:	eaffff48 	b	42a0 <_nextprop>

0000457c <fdt_next_property_offset>:
    457c:	e92d4010 	push	{r4, lr}
    4580:	e1a04000 	mov	r4, r0
    4584:	eb000308 	bl	51ac <_fdt_check_prop_offset>
    4588:	e2501000 	subs	r1, r0, #0
    458c:	b8bd8010 	poplt	{r4, pc}
    4590:	e1a00004 	mov	r0, r4
    4594:	e8bd4010 	pop	{r4, lr}
    4598:	eaffff40 	b	42a0 <_nextprop>

0000459c <fdt_get_property_by_offset>:
    459c:	e92d4070 	push	{r4, r5, r6, lr}
    45a0:	e1a04002 	mov	r4, r2
    45a4:	e1a05000 	mov	r5, r0
    45a8:	e1a06001 	mov	r6, r1
    45ac:	eb0002fe 	bl	51ac <_fdt_check_prop_offset>
    45b0:	e3500000 	cmp	r0, #0
    45b4:	ba000009 	blt	45e0 <fdt_get_property_by_offset+0x44>
    45b8:	e5950008 	ldr	r0, [r5, #8]
    45bc:	e3540000 	cmp	r4, #0
    45c0:	e6bf0f30 	rev	r0, r0
    45c4:	e0800006 	add	r0, r0, r6
    45c8:	e0850000 	add	r0, r5, r0
    45cc:	08bd8070 	popeq	{r4, r5, r6, pc}
    45d0:	e5903004 	ldr	r3, [r0, #4]
    45d4:	e6bf3f33 	rev	r3, r3
    45d8:	e5843000 	str	r3, [r4]
    45dc:	e8bd8070 	pop	{r4, r5, r6, pc}
    45e0:	e3540000 	cmp	r4, #0
    45e4:	15840000 	strne	r0, [r4]
    45e8:	e3a00000 	mov	r0, #0
    45ec:	e8bd8070 	pop	{r4, r5, r6, pc}

000045f0 <fdt_get_property_namelen>:
    45f0:	e92d47f0 	push	{r4, r5, r6, r7, r8, r9, sl, lr}
    45f4:	e1a0a002 	mov	sl, r2
    45f8:	e1a07003 	mov	r7, r3
    45fc:	e1a04000 	mov	r4, r0
    4600:	e59d8020 	ldr	r8, [sp, #32]
    4604:	ebffffd4 	bl	455c <fdt_first_property_offset>
    4608:	e2505000 	subs	r5, r0, #0
    460c:	aa000005 	bge	4628 <fdt_get_property_namelen+0x38>
    4610:	ea00001b 	b	4684 <fdt_get_property_namelen+0x94>
    4614:	e1a01005 	mov	r1, r5
    4618:	e1a00004 	mov	r0, r4
    461c:	ebffffd6 	bl	457c <fdt_next_property_offset>
    4620:	e2505000 	subs	r5, r0, #0
    4624:	ba000016 	blt	4684 <fdt_get_property_namelen+0x94>
    4628:	e1a00004 	mov	r0, r4
    462c:	e1a01005 	mov	r1, r5
    4630:	e1a02008 	mov	r2, r8
    4634:	ebffffd8 	bl	459c <fdt_get_property_by_offset>
    4638:	e2506000 	subs	r6, r0, #0
    463c:	e1a00004 	mov	r0, r4
    4640:	0a00000e 	beq	4680 <fdt_get_property_namelen+0x90>
    4644:	e5961008 	ldr	r1, [r6, #8]
    4648:	e6bf1f31 	rev	r1, r1
    464c:	ebffff2d 	bl	4308 <fdt_string>
    4650:	e1a09000 	mov	r9, r0
    4654:	ebfffbef 	bl	3618 <strlen>
    4658:	e1500007 	cmp	r0, r7
    465c:	1affffec 	bne	4614 <fdt_get_property_namelen+0x24>
    4660:	e1a00009 	mov	r0, r9
    4664:	e1a0100a 	mov	r1, sl
    4668:	e1a02007 	mov	r2, r7
    466c:	ebfffbf1 	bl	3638 <memcmp>
    4670:	e3500000 	cmp	r0, #0
    4674:	1affffe6 	bne	4614 <fdt_get_property_namelen+0x24>
    4678:	e1a00006 	mov	r0, r6
    467c:	e8bd87f0 	pop	{r4, r5, r6, r7, r8, r9, sl, pc}
    4680:	e3e0500c 	mvn	r5, #12
    4684:	e3580000 	cmp	r8, #0
    4688:	e3a00000 	mov	r0, #0
    468c:	15885000 	strne	r5, [r8]
    4690:	e8bd87f0 	pop	{r4, r5, r6, r7, r8, r9, sl, pc}

00004694 <fdt_get_property>:
    4694:	e92d40f0 	push	{r4, r5, r6, r7, lr}
    4698:	e1a05000 	mov	r5, r0
    469c:	e24dd00c 	sub	sp, sp, #12
    46a0:	e1a00002 	mov	r0, r2
    46a4:	e1a07003 	mov	r7, r3
    46a8:	e1a04002 	mov	r4, r2
    46ac:	e1a06001 	mov	r6, r1
    46b0:	ebfffbd8 	bl	3618 <strlen>
    46b4:	e58d7000 	str	r7, [sp]
    46b8:	e1a01006 	mov	r1, r6
    46bc:	e1a02004 	mov	r2, r4
    46c0:	e1a03000 	mov	r3, r0
    46c4:	e1a00005 	mov	r0, r5
    46c8:	ebffffc8 	bl	45f0 <fdt_get_property_namelen>
    46cc:	e28dd00c 	add	sp, sp, #12
    46d0:	e8bd80f0 	pop	{r4, r5, r6, r7, pc}

000046d4 <fdt_getprop_namelen>:
    46d4:	e52de004 	push	{lr}		; (str lr, [sp, #-4]!)
    46d8:	e24dd00c 	sub	sp, sp, #12
    46dc:	e59dc010 	ldr	ip, [sp, #16]
    46e0:	e58dc000 	str	ip, [sp]
    46e4:	ebffffc1 	bl	45f0 <fdt_get_property_namelen>
    46e8:	e3500000 	cmp	r0, #0
    46ec:	1280000c 	addne	r0, r0, #12
    46f0:	e28dd00c 	add	sp, sp, #12
    46f4:	e49df004 	pop	{pc}		; (ldr pc, [sp], #4)

000046f8 <fdt_getprop_by_offset>:
    46f8:	e92d4070 	push	{r4, r5, r6, lr}
    46fc:	e1a05002 	mov	r5, r2
    4700:	e1a02003 	mov	r2, r3
    4704:	e1a06000 	mov	r6, r0
    4708:	ebffffa3 	bl	459c <fdt_get_property_by_offset>
    470c:	e2504000 	subs	r4, r0, #0
    4710:	0a000008 	beq	4738 <fdt_getprop_by_offset+0x40>
    4714:	e3550000 	cmp	r5, #0
    4718:	0a000004 	beq	4730 <fdt_getprop_by_offset+0x38>
    471c:	e5941008 	ldr	r1, [r4, #8]
    4720:	e1a00006 	mov	r0, r6
    4724:	e6bf1f31 	rev	r1, r1
    4728:	ebfffef6 	bl	4308 <fdt_string>
    472c:	e5850000 	str	r0, [r5]
    4730:	e284000c 	add	r0, r4, #12
    4734:	e8bd8070 	pop	{r4, r5, r6, pc}
    4738:	e1a00004 	mov	r0, r4
    473c:	e8bd8070 	pop	{r4, r5, r6, pc}

00004740 <fdt_getprop>:
    4740:	e92d40f0 	push	{r4, r5, r6, r7, lr}
    4744:	e1a05000 	mov	r5, r0
    4748:	e24dd00c 	sub	sp, sp, #12
    474c:	e1a00002 	mov	r0, r2
    4750:	e1a07003 	mov	r7, r3
    4754:	e1a04002 	mov	r4, r2
    4758:	e1a06001 	mov	r6, r1
    475c:	ebfffbad 	bl	3618 <strlen>
    4760:	e58d7000 	str	r7, [sp]
    4764:	e1a01006 	mov	r1, r6
    4768:	e1a02004 	mov	r2, r4
    476c:	e1a03000 	mov	r3, r0
    4770:	e1a00005 	mov	r0, r5
    4774:	ebffffd6 	bl	46d4 <fdt_getprop_namelen>
    4778:	e28dd00c 	add	sp, sp, #12
    477c:	e8bd80f0 	pop	{r4, r5, r6, r7, pc}

00004780 <fdt_get_phandle>:
    4780:	e92d4070 	push	{r4, r5, r6, lr}
    4784:	e24dd008 	sub	sp, sp, #8
    4788:	e28d4004 	add	r4, sp, #4
    478c:	e59f206c 	ldr	r2, [pc, #108]	; 4800 <fdt_get_phandle+0x80>
    4790:	e1a06000 	mov	r6, r0
    4794:	e1a05001 	mov	r5, r1
    4798:	e08f2002 	add	r2, pc, r2
    479c:	e1a03004 	mov	r3, r4
    47a0:	ebffffe6 	bl	4740 <fdt_getprop>
    47a4:	e3500000 	cmp	r0, #0
    47a8:	0a000002 	beq	47b8 <fdt_get_phandle+0x38>
    47ac:	e59d2004 	ldr	r2, [sp, #4]
    47b0:	e3520004 	cmp	r2, #4
    47b4:	0a00000d 	beq	47f0 <fdt_get_phandle+0x70>
    47b8:	e59f2044 	ldr	r2, [pc, #68]	; 4804 <fdt_get_phandle+0x84>
    47bc:	e1a00006 	mov	r0, r6
    47c0:	e1a01005 	mov	r1, r5
    47c4:	e1a03004 	mov	r3, r4
    47c8:	e08f2002 	add	r2, pc, r2
    47cc:	ebffffdb 	bl	4740 <fdt_getprop>
    47d0:	e3500000 	cmp	r0, #0
    47d4:	0a000003 	beq	47e8 <fdt_get_phandle+0x68>
    47d8:	e59d2004 	ldr	r2, [sp, #4]
    47dc:	e3520004 	cmp	r2, #4
    47e0:	13a00000 	movne	r0, #0
    47e4:	0a000001 	beq	47f0 <fdt_get_phandle+0x70>
    47e8:	e28dd008 	add	sp, sp, #8
    47ec:	e8bd8070 	pop	{r4, r5, r6, pc}
    47f0:	e5900000 	ldr	r0, [r0]
    47f4:	e6bf0f30 	rev	r0, r0
    47f8:	e28dd008 	add	sp, sp, #8
    47fc:	e8bd8070 	pop	{r4, r5, r6, pc}
    4800:	00001ef4 	.word	0x00001ef4
    4804:	00001ecc 	.word	0x00001ecc

00004808 <fdt_get_alias_namelen>:
    4808:	e92d4070 	push	{r4, r5, r6, lr}
    480c:	e1a04001 	mov	r4, r1
    4810:	e59f1040 	ldr	r1, [pc, #64]	; 4858 <fdt_get_alias_namelen+0x50>
    4814:	e24dd008 	sub	sp, sp, #8
    4818:	e1a06002 	mov	r6, r2
    481c:	e1a05000 	mov	r5, r0
    4820:	e08f1001 	add	r1, pc, r1
    4824:	eb00000c 	bl	485c <fdt_path_offset>
    4828:	e2501000 	subs	r1, r0, #0
    482c:	ba000007 	blt	4850 <fdt_get_alias_namelen+0x48>
    4830:	e3a0c000 	mov	ip, #0
    4834:	e1a00005 	mov	r0, r5
    4838:	e1a02004 	mov	r2, r4
    483c:	e1a03006 	mov	r3, r6
    4840:	e58dc000 	str	ip, [sp]
    4844:	ebffffa2 	bl	46d4 <fdt_getprop_namelen>
    4848:	e28dd008 	add	sp, sp, #8
    484c:	e8bd8070 	pop	{r4, r5, r6, pc}
    4850:	e3a00000 	mov	r0, #0
    4854:	eafffffb 	b	4848 <fdt_get_alias_namelen+0x40>
    4858:	00001e84 	.word	0x00001e84

0000485c <fdt_path_offset>:
    485c:	e92d40f8 	push	{r3, r4, r5, r6, r7, lr}
    4860:	e1a06000 	mov	r6, r0
    4864:	e1a00001 	mov	r0, r1
    4868:	e1a04001 	mov	r4, r1
    486c:	ebfffb69 	bl	3618 <strlen>
    4870:	e1a07000 	mov	r7, r0
    4874:	e1a00006 	mov	r0, r6
    4878:	eb0001c9 	bl	4fa4 <fdt_check_header>
    487c:	e3500000 	cmp	r0, #0
    4880:	18bd80f8 	popne	{r3, r4, r5, r6, r7, pc}
    4884:	e5d42000 	ldrb	r2, [r4]
    4888:	e0847007 	add	r7, r4, r7
    488c:	e352002f 	cmp	r2, #47	; 0x2f
    4890:	0a00002c 	beq	4948 <fdt_path_offset+0xec>
    4894:	e1a00004 	mov	r0, r4
    4898:	e3a0102f 	mov	r1, #47	; 0x2f
    489c:	ebfffb86 	bl	36bc <strchr>
    48a0:	e1a01004 	mov	r1, r4
    48a4:	e3500000 	cmp	r0, #0
    48a8:	11a04000 	movne	r4, r0
    48ac:	01a04007 	moveq	r4, r7
    48b0:	e1a00006 	mov	r0, r6
    48b4:	e0612004 	rsb	r2, r1, r4
    48b8:	ebffffd2 	bl	4808 <fdt_get_alias_namelen>
    48bc:	e2501000 	subs	r1, r0, #0
    48c0:	0a000022 	beq	4950 <fdt_path_offset+0xf4>
    48c4:	e1a00006 	mov	r0, r6
    48c8:	ebffffe3 	bl	485c <fdt_path_offset>
    48cc:	e5d42000 	ldrb	r2, [r4]
    48d0:	e1a05000 	mov	r5, r0
    48d4:	e3520000 	cmp	r2, #0
    48d8:	0a000018 	beq	4940 <fdt_path_offset+0xe4>
    48dc:	e352002f 	cmp	r2, #47	; 0x2f
    48e0:	1a000006 	bne	4900 <fdt_path_offset+0xa4>
    48e4:	e2843001 	add	r3, r4, #1
    48e8:	e1a04003 	mov	r4, r3
    48ec:	e4d3c001 	ldrb	ip, [r3], #1
    48f0:	e35c002f 	cmp	ip, #47	; 0x2f
    48f4:	0afffffb 	beq	48e8 <fdt_path_offset+0x8c>
    48f8:	e35c0000 	cmp	ip, #0
    48fc:	0a00000f 	beq	4940 <fdt_path_offset+0xe4>
    4900:	e1a00004 	mov	r0, r4
    4904:	e3a0102f 	mov	r1, #47	; 0x2f
    4908:	ebfffb6b 	bl	36bc <strchr>
    490c:	e1a02004 	mov	r2, r4
    4910:	e1a01005 	mov	r1, r5
    4914:	e3500000 	cmp	r0, #0
    4918:	11a04000 	movne	r4, r0
    491c:	01a04007 	moveq	r4, r7
    4920:	e1a00006 	mov	r0, r6
    4924:	e0623004 	rsb	r3, r2, r4
    4928:	ebfffeaa 	bl	43d8 <fdt_subnode_offset_namelen>
    492c:	e2505000 	subs	r5, r0, #0
    4930:	ba000002 	blt	4940 <fdt_path_offset+0xe4>
    4934:	e5d42000 	ldrb	r2, [r4]
    4938:	e3520000 	cmp	r2, #0
    493c:	1affffe6 	bne	48dc <fdt_path_offset+0x80>
    4940:	e1a00005 	mov	r0, r5
    4944:	e8bd80f8 	pop	{r3, r4, r5, r6, r7, pc}
    4948:	e1a05000 	mov	r5, r0
    494c:	eaffffe0 	b	48d4 <fdt_path_offset+0x78>
    4950:	e3e00004 	mvn	r0, #4
    4954:	e8bd80f8 	pop	{r3, r4, r5, r6, r7, pc}

00004958 <fdt_get_alias>:
    4958:	e92d4038 	push	{r3, r4, r5, lr}
    495c:	e1a05000 	mov	r5, r0
    4960:	e1a00001 	mov	r0, r1
    4964:	e1a04001 	mov	r4, r1
    4968:	ebfffb2a 	bl	3618 <strlen>
    496c:	e1a01004 	mov	r1, r4
    4970:	e1a02000 	mov	r2, r0
    4974:	e1a00005 	mov	r0, r5
    4978:	e8bd4038 	pop	{r3, r4, r5, lr}
    497c:	eaffffa1 	b	4808 <fdt_get_alias_namelen>

00004980 <fdt_get_path>:
    4980:	e92d4ff0 	push	{r4, r5, r6, r7, r8, r9, sl, fp, lr}
    4984:	e24dd014 	sub	sp, sp, #20
    4988:	e1a05001 	mov	r5, r1
    498c:	e1a0b002 	mov	fp, r2
    4990:	e1a08003 	mov	r8, r3
    4994:	e1a06000 	mov	r6, r0
    4998:	eb000181 	bl	4fa4 <fdt_check_header>
    499c:	e3500000 	cmp	r0, #0
    49a0:	1a000044 	bne	4ab8 <fdt_get_path+0x138>
    49a4:	e3580001 	cmp	r8, #1
    49a8:	da00004d 	ble	4ae4 <fdt_get_path+0x164>
    49ac:	e3550000 	cmp	r5, #0
    49b0:	e58d0008 	str	r0, [sp, #8]
    49b4:	ba00004c 	blt	4aec <fdt_get_path+0x16c>
    49b8:	e28d7008 	add	r7, sp, #8
    49bc:	e1a01000 	mov	r1, r0
    49c0:	e1a09000 	mov	r9, r0
    49c4:	e1a04000 	mov	r4, r0
    49c8:	e1a0a000 	mov	sl, r0
    49cc:	e28d300c 	add	r3, sp, #12
    49d0:	e58d3004 	str	r3, [sp, #4]
    49d4:	e15a0001 	cmp	sl, r1
    49d8:	aa000019 	bge	4a44 <fdt_get_path+0xc4>
    49dc:	e1590005 	cmp	r9, r5
    49e0:	0a00002c 	beq	4a98 <fdt_get_path+0x118>
    49e4:	e1a01009 	mov	r1, r9
    49e8:	e1a00006 	mov	r0, r6
    49ec:	e1a02007 	mov	r2, r7
    49f0:	eb0001fe 	bl	51f0 <fdt_next_node>
    49f4:	e1550000 	cmp	r5, r0
    49f8:	a3500000 	cmpge	r0, #0
    49fc:	e1a09000 	mov	r9, r0
    4a00:	ba00002e 	blt	4ac0 <fdt_get_path+0x140>
    4a04:	e59d1008 	ldr	r1, [sp, #8]
    4a08:	e15a0001 	cmp	sl, r1
    4a0c:	dafffff0 	ble	49d4 <fdt_get_path+0x54>
    4a10:	e1a0000a 	mov	r0, sl
    4a14:	e08bc004 	add	ip, fp, r4
    4a18:	e24cc001 	sub	ip, ip, #1
    4a1c:	e55c2001 	ldrb	r2, [ip, #-1]
    4a20:	e2444001 	sub	r4, r4, #1
    4a24:	e352002f 	cmp	r2, #47	; 0x2f
    4a28:	1afffffa 	bne	4a18 <fdt_get_path+0x98>
    4a2c:	e2400001 	sub	r0, r0, #1
    4a30:	e1500001 	cmp	r0, r1
    4a34:	1afffff6 	bne	4a14 <fdt_get_path+0x94>
    4a38:	e1a0a001 	mov	sl, r1
    4a3c:	e15a0001 	cmp	sl, r1
    4a40:	baffffe5 	blt	49dc <fdt_get_path+0x5c>
    4a44:	e1a01009 	mov	r1, r9
    4a48:	e1a00006 	mov	r0, r6
    4a4c:	e28d200c 	add	r2, sp, #12
    4a50:	ebfffea4 	bl	44e8 <fdt_get_name>
    4a54:	e2501000 	subs	r1, r0, #0
    4a58:	0a00001e 	beq	4ad8 <fdt_get_path+0x158>
    4a5c:	e59d200c 	ldr	r2, [sp, #12]
    4a60:	e0840002 	add	r0, r4, r2
    4a64:	e2800001 	add	r0, r0, #1
    4a68:	e1580000 	cmp	r8, r0
    4a6c:	baffffda 	blt	49dc <fdt_get_path+0x5c>
    4a70:	e08b0004 	add	r0, fp, r4
    4a74:	e28aa001 	add	sl, sl, #1
    4a78:	ebfffa9e 	bl	34f8 <memcpy>
    4a7c:	e59d200c 	ldr	r2, [sp, #12]
    4a80:	e1590005 	cmp	r9, r5
    4a84:	e3a0302f 	mov	r3, #47	; 0x2f
    4a88:	e0842002 	add	r2, r4, r2
    4a8c:	e2824001 	add	r4, r2, #1
    4a90:	e7cb3002 	strb	r3, [fp, r2]
    4a94:	1affffd2 	bne	49e4 <fdt_get_path+0x64>
    4a98:	e59d3008 	ldr	r3, [sp, #8]
    4a9c:	e2833001 	add	r3, r3, #1
    4aa0:	e153000a 	cmp	r3, sl
    4aa4:	ca00000e 	bgt	4ae4 <fdt_get_path+0x164>
    4aa8:	e3540001 	cmp	r4, #1
    4aac:	e3a00000 	mov	r0, #0
    4ab0:	c2444001 	subgt	r4, r4, #1
    4ab4:	e7cb0004 	strb	r0, [fp, r4]
    4ab8:	e28dd014 	add	sp, sp, #20
    4abc:	e8bd8ff0 	pop	{r4, r5, r6, r7, r8, r9, sl, fp, pc}
    4ac0:	e3700001 	cmn	r0, #1
    4ac4:	aa000008 	bge	4aec <fdt_get_path+0x16c>
    4ac8:	e3700004 	cmn	r0, #4
    4acc:	03e0000a 	mvneq	r0, #10
    4ad0:	e28dd014 	add	sp, sp, #20
    4ad4:	e8bd8ff0 	pop	{r4, r5, r6, r7, r8, r9, sl, fp, pc}
    4ad8:	e59d000c 	ldr	r0, [sp, #12]
    4adc:	e28dd014 	add	sp, sp, #20
    4ae0:	e8bd8ff0 	pop	{r4, r5, r6, r7, r8, r9, sl, fp, pc}
    4ae4:	e3e00002 	mvn	r0, #2
    4ae8:	eafffff2 	b	4ab8 <fdt_get_path+0x138>
    4aec:	e3e00003 	mvn	r0, #3
    4af0:	eafffff0 	b	4ab8 <fdt_get_path+0x138>

00004af4 <fdt_supernode_atdepth_offset>:
    4af4:	e92d47f0 	push	{r4, r5, r6, r7, r8, r9, sl, lr}
    4af8:	e24dd008 	sub	sp, sp, #8
    4afc:	e1a04001 	mov	r4, r1
    4b00:	e1a07002 	mov	r7, r2
    4b04:	e1a0a003 	mov	sl, r3
    4b08:	e1a08000 	mov	r8, r0
    4b0c:	eb000124 	bl	4fa4 <fdt_check_header>
    4b10:	e3500000 	cmp	r0, #0
    4b14:	1a00001b 	bne	4b88 <fdt_supernode_atdepth_offset+0x94>
    4b18:	e3570000 	cmp	r7, #0
    4b1c:	ba000023 	blt	4bb0 <fdt_supernode_atdepth_offset+0xbc>
    4b20:	e3540000 	cmp	r4, #0
    4b24:	e58d0004 	str	r0, [sp, #4]
    4b28:	a28d9004 	addge	r9, sp, #4
    4b2c:	a1a05000 	movge	r5, r0
    4b30:	a3e0600c 	mvnge	r6, #12
    4b34:	a1a0c005 	movge	ip, r5
    4b38:	aa000006 	bge	4b58 <fdt_supernode_atdepth_offset+0x64>
    4b3c:	ea000019 	b	4ba8 <fdt_supernode_atdepth_offset+0xb4>
    4b40:	eb0001aa 	bl	51f0 <fdt_next_node>
    4b44:	e1540000 	cmp	r4, r0
    4b48:	a3500000 	cmpge	r0, #0
    4b4c:	e1a0c000 	mov	ip, r0
    4b50:	ba00000e 	blt	4b90 <fdt_supernode_atdepth_offset+0x9c>
    4b54:	e59d5004 	ldr	r5, [sp, #4]
    4b58:	e1570005 	cmp	r7, r5
    4b5c:	e1a00008 	mov	r0, r8
    4b60:	e1a0100c 	mov	r1, ip
    4b64:	e1a02009 	mov	r2, r9
    4b68:	01a0600c 	moveq	r6, ip
    4b6c:	e154000c 	cmp	r4, ip
    4b70:	1afffff2 	bne	4b40 <fdt_supernode_atdepth_offset+0x4c>
    4b74:	e35a0000 	cmp	sl, #0
    4b78:	158a5000 	strne	r5, [sl]
    4b7c:	e1570005 	cmp	r7, r5
    4b80:	d1a00006 	movle	r0, r6
    4b84:	c3e00000 	mvngt	r0, #0
    4b88:	e28dd008 	add	sp, sp, #8
    4b8c:	e8bd87f0 	pop	{r4, r5, r6, r7, r8, r9, sl, pc}
    4b90:	e3700001 	cmn	r0, #1
    4b94:	aa000003 	bge	4ba8 <fdt_supernode_atdepth_offset+0xb4>
    4b98:	e3700004 	cmn	r0, #4
    4b9c:	03e0000a 	mvneq	r0, #10
    4ba0:	e28dd008 	add	sp, sp, #8
    4ba4:	e8bd87f0 	pop	{r4, r5, r6, r7, r8, r9, sl, pc}
    4ba8:	e3e00003 	mvn	r0, #3
    4bac:	eafffff5 	b	4b88 <fdt_supernode_atdepth_offset+0x94>
    4bb0:	e3e00000 	mvn	r0, #0
    4bb4:	eafffff3 	b	4b88 <fdt_supernode_atdepth_offset+0x94>

00004bb8 <fdt_node_depth>:
    4bb8:	e52de004 	push	{lr}		; (str lr, [sp, #-4]!)
    4bbc:	e24dd00c 	sub	sp, sp, #12
    4bc0:	e3a02000 	mov	r2, #0
    4bc4:	e28d3004 	add	r3, sp, #4
    4bc8:	ebffffc9 	bl	4af4 <fdt_supernode_atdepth_offset>
    4bcc:	e3500000 	cmp	r0, #0
    4bd0:	0a000002 	beq	4be0 <fdt_node_depth+0x28>
    4bd4:	a3e0000c 	mvnge	r0, #12
    4bd8:	e28dd00c 	add	sp, sp, #12
    4bdc:	e49df004 	pop	{pc}		; (ldr pc, [sp], #4)
    4be0:	e59d0004 	ldr	r0, [sp, #4]
    4be4:	e28dd00c 	add	sp, sp, #12
    4be8:	e49df004 	pop	{pc}		; (ldr pc, [sp], #4)

00004bec <fdt_parent_offset>:
    4bec:	e92d4070 	push	{r4, r5, r6, lr}
    4bf0:	e1a05000 	mov	r5, r0
    4bf4:	e1a04001 	mov	r4, r1
    4bf8:	ebffffee 	bl	4bb8 <fdt_node_depth>
    4bfc:	e2502000 	subs	r2, r0, #0
    4c00:	b8bd8070 	poplt	{r4, r5, r6, pc}
    4c04:	e1a00005 	mov	r0, r5
    4c08:	e1a01004 	mov	r1, r4
    4c0c:	e2422001 	sub	r2, r2, #1
    4c10:	e3a03000 	mov	r3, #0
    4c14:	e8bd4070 	pop	{r4, r5, r6, lr}
    4c18:	eaffffb5 	b	4af4 <fdt_supernode_atdepth_offset>

00004c1c <fdt_node_offset_by_prop_value>:
    4c1c:	e92d43f0 	push	{r4, r5, r6, r7, r8, r9, lr}
    4c20:	e24dd00c 	sub	sp, sp, #12
    4c24:	e1a07002 	mov	r7, r2
    4c28:	e1a04001 	mov	r4, r1
    4c2c:	e1a09003 	mov	r9, r3
    4c30:	e1a05000 	mov	r5, r0
    4c34:	e59d6028 	ldr	r6, [sp, #40]	; 0x28
    4c38:	eb0000d9 	bl	4fa4 <fdt_check_header>
    4c3c:	e2502000 	subs	r2, r0, #0
    4c40:	11a00002 	movne	r0, r2
    4c44:	0a000001 	beq	4c50 <fdt_node_offset_by_prop_value+0x34>
    4c48:	e28dd00c 	add	sp, sp, #12
    4c4c:	e8bd83f0 	pop	{r4, r5, r6, r7, r8, r9, pc}
    4c50:	e1a01004 	mov	r1, r4
    4c54:	e1a00005 	mov	r0, r5
    4c58:	eb000164 	bl	51f0 <fdt_next_node>
    4c5c:	e2504000 	subs	r4, r0, #0
    4c60:	ba000016 	blt	4cc0 <fdt_node_offset_by_prop_value+0xa4>
    4c64:	e28d8004 	add	r8, sp, #4
    4c68:	ea000005 	b	4c84 <fdt_node_offset_by_prop_value+0x68>
    4c6c:	e1a01004 	mov	r1, r4
    4c70:	e1a00005 	mov	r0, r5
    4c74:	e3a02000 	mov	r2, #0
    4c78:	eb00015c 	bl	51f0 <fdt_next_node>
    4c7c:	e2504000 	subs	r4, r0, #0
    4c80:	ba00000e 	blt	4cc0 <fdt_node_offset_by_prop_value+0xa4>
    4c84:	e1a00005 	mov	r0, r5
    4c88:	e1a01004 	mov	r1, r4
    4c8c:	e1a02007 	mov	r2, r7
    4c90:	e1a03008 	mov	r3, r8
    4c94:	ebfffea9 	bl	4740 <fdt_getprop>
    4c98:	e3500000 	cmp	r0, #0
    4c9c:	0afffff2 	beq	4c6c <fdt_node_offset_by_prop_value+0x50>
    4ca0:	e59dc004 	ldr	ip, [sp, #4]
    4ca4:	e15c0006 	cmp	ip, r6
    4ca8:	1affffef 	bne	4c6c <fdt_node_offset_by_prop_value+0x50>
    4cac:	e1a01009 	mov	r1, r9
    4cb0:	e1a02006 	mov	r2, r6
    4cb4:	ebfffa5f 	bl	3638 <memcmp>
    4cb8:	e3500000 	cmp	r0, #0
    4cbc:	1affffea 	bne	4c6c <fdt_node_offset_by_prop_value+0x50>
    4cc0:	e1a00004 	mov	r0, r4
    4cc4:	e28dd00c 	add	sp, sp, #12
    4cc8:	e8bd83f0 	pop	{r4, r5, r6, r7, r8, r9, pc}

00004ccc <fdt_node_offset_by_phandle>:
    4ccc:	e2413001 	sub	r3, r1, #1
    4cd0:	e3730003 	cmn	r3, #3
    4cd4:	e92d4070 	push	{r4, r5, r6, lr}
    4cd8:	e1a06001 	mov	r6, r1
    4cdc:	e1a05000 	mov	r5, r0
    4ce0:	8a000014 	bhi	4d38 <fdt_node_offset_by_phandle+0x6c>
    4ce4:	eb0000ae 	bl	4fa4 <fdt_check_header>
    4ce8:	e2502000 	subs	r2, r0, #0
    4cec:	0a000001 	beq	4cf8 <fdt_node_offset_by_phandle+0x2c>
    4cf0:	e1a00002 	mov	r0, r2
    4cf4:	e8bd8070 	pop	{r4, r5, r6, pc}
    4cf8:	e1a00005 	mov	r0, r5
    4cfc:	e3e01000 	mvn	r1, #0
    4d00:	ea000007 	b	4d24 <fdt_node_offset_by_phandle+0x58>
    4d04:	e1a01004 	mov	r1, r4
    4d08:	e1a00005 	mov	r0, r5
    4d0c:	ebfffe9b 	bl	4780 <fdt_get_phandle>
    4d10:	e1a01004 	mov	r1, r4
    4d14:	e3a02000 	mov	r2, #0
    4d18:	e1500006 	cmp	r0, r6
    4d1c:	e1a00005 	mov	r0, r5
    4d20:	0a000002 	beq	4d30 <fdt_node_offset_by_phandle+0x64>
    4d24:	eb000131 	bl	51f0 <fdt_next_node>
    4d28:	e2504000 	subs	r4, r0, #0
    4d2c:	aafffff4 	bge	4d04 <fdt_node_offset_by_phandle+0x38>
    4d30:	e1a00004 	mov	r0, r4
    4d34:	e8bd8070 	pop	{r4, r5, r6, pc}
    4d38:	e3e00005 	mvn	r0, #5
    4d3c:	e8bd8070 	pop	{r4, r5, r6, pc}

00004d40 <fdt_node_check_compatible>:
    4d40:	e92d41f0 	push	{r4, r5, r6, r7, r8, lr}
    4d44:	e1a07002 	mov	r7, r2
    4d48:	e59f209c 	ldr	r2, [pc, #156]	; 4dec <fdt_node_check_compatible+0xac>
    4d4c:	e24dd008 	sub	sp, sp, #8
    4d50:	e28d3004 	add	r3, sp, #4
    4d54:	e08f2002 	add	r2, pc, r2
    4d58:	ebfffe78 	bl	4740 <fdt_getprop>
    4d5c:	e2504000 	subs	r4, r0, #0
    4d60:	059d3004 	ldreq	r3, [sp, #4]
    4d64:	0a000019 	beq	4dd0 <fdt_node_check_compatible+0x90>
    4d68:	e1a00007 	mov	r0, r7
    4d6c:	e59d5004 	ldr	r5, [sp, #4]
    4d70:	ebfffa28 	bl	3618 <strlen>
    4d74:	e1550000 	cmp	r5, r0
    4d78:	e1a06000 	mov	r6, r0
    4d7c:	ba000016 	blt	4ddc <fdt_node_check_compatible+0x9c>
    4d80:	e2808001 	add	r8, r0, #1
    4d84:	ea000008 	b	4dac <fdt_node_check_compatible+0x6c>
    4d88:	ebfffa3f 	bl	368c <memchr>
    4d8c:	e3500000 	cmp	r0, #0
    4d90:	e0641000 	rsb	r1, r4, r0
    4d94:	e2804001 	add	r4, r0, #1
    4d98:	0a00000f 	beq	4ddc <fdt_node_check_compatible+0x9c>
    4d9c:	e1e01001 	mvn	r1, r1
    4da0:	e0855001 	add	r5, r5, r1
    4da4:	e1560005 	cmp	r6, r5
    4da8:	ca00000b 	bgt	4ddc <fdt_node_check_compatible+0x9c>
    4dac:	e1a01004 	mov	r1, r4
    4db0:	e1a02008 	mov	r2, r8
    4db4:	e1a00007 	mov	r0, r7
    4db8:	ebfffa1e 	bl	3638 <memcmp>
    4dbc:	e1a02005 	mov	r2, r5
    4dc0:	e3a01000 	mov	r1, #0
    4dc4:	e2503000 	subs	r3, r0, #0
    4dc8:	e1a00004 	mov	r0, r4
    4dcc:	1affffed 	bne	4d88 <fdt_node_check_compatible+0x48>
    4dd0:	e1a00003 	mov	r0, r3
    4dd4:	e28dd008 	add	sp, sp, #8
    4dd8:	e8bd81f0 	pop	{r4, r5, r6, r7, r8, pc}
    4ddc:	e3a03001 	mov	r3, #1
    4de0:	e1a00003 	mov	r0, r3
    4de4:	e28dd008 	add	sp, sp, #8
    4de8:	e8bd81f0 	pop	{r4, r5, r6, r7, r8, pc}
    4dec:	0000195c 	.word	0x0000195c

00004df0 <fdt_node_offset_by_compatible>:
    4df0:	e92d4070 	push	{r4, r5, r6, lr}
    4df4:	e1a06002 	mov	r6, r2
    4df8:	e1a04001 	mov	r4, r1
    4dfc:	e1a05000 	mov	r5, r0
    4e00:	eb000067 	bl	4fa4 <fdt_check_header>
    4e04:	e2502000 	subs	r2, r0, #0
    4e08:	0a000001 	beq	4e14 <fdt_node_offset_by_compatible+0x24>
    4e0c:	e1a00002 	mov	r0, r2
    4e10:	e8bd8070 	pop	{r4, r5, r6, pc}
    4e14:	e1a01004 	mov	r1, r4
    4e18:	e1a00005 	mov	r0, r5
    4e1c:	ea00000b 	b	4e50 <fdt_node_offset_by_compatible+0x60>
    4e20:	e1a01004 	mov	r1, r4
    4e24:	e1a02006 	mov	r2, r6
    4e28:	e1a00005 	mov	r0, r5
    4e2c:	ebffffc3 	bl	4d40 <fdt_node_check_compatible>
    4e30:	e1a01004 	mov	r1, r4
    4e34:	e3a02000 	mov	r2, #0
    4e38:	e1a03000 	mov	r3, r0
    4e3c:	e3730001 	cmn	r3, #1
    4e40:	e1a00005 	mov	r0, r5
    4e44:	ba000006 	blt	4e64 <fdt_node_offset_by_compatible+0x74>
    4e48:	e1530002 	cmp	r3, r2
    4e4c:	0a000002 	beq	4e5c <fdt_node_offset_by_compatible+0x6c>
    4e50:	eb0000e6 	bl	51f0 <fdt_next_node>
    4e54:	e2504000 	subs	r4, r0, #0
    4e58:	aafffff0 	bge	4e20 <fdt_node_offset_by_compatible+0x30>
    4e5c:	e1a00004 	mov	r0, r4
    4e60:	e8bd8070 	pop	{r4, r5, r6, pc}
    4e64:	e1a00003 	mov	r0, r3
    4e68:	e8bd8070 	pop	{r4, r5, r6, pc}

00004e6c <fdt_setprop_inplace>:
    4e6c:	e92d4010 	push	{r4, lr}
    4e70:	e24dd008 	sub	sp, sp, #8
    4e74:	e1a04003 	mov	r4, r3
    4e78:	e28d3004 	add	r3, sp, #4
    4e7c:	ebfffe2f 	bl	4740 <fdt_getprop>
    4e80:	e3500000 	cmp	r0, #0
    4e84:	059d0004 	ldreq	r0, [sp, #4]
    4e88:	0a000007 	beq	4eac <fdt_setprop_inplace+0x40>
    4e8c:	e59d2004 	ldr	r2, [sp, #4]
    4e90:	e59d3010 	ldr	r3, [sp, #16]
    4e94:	e1520003 	cmp	r2, r3
    4e98:	13e00002 	mvnne	r0, #2
    4e9c:	1a000002 	bne	4eac <fdt_setprop_inplace+0x40>
    4ea0:	e1a01004 	mov	r1, r4
    4ea4:	ebfff993 	bl	34f8 <memcpy>
    4ea8:	e3a00000 	mov	r0, #0
    4eac:	e28dd008 	add	sp, sp, #8
    4eb0:	e8bd8010 	pop	{r4, pc}

00004eb4 <fdt_nop_property>:
    4eb4:	e52de004 	push	{lr}		; (str lr, [sp, #-4]!)
    4eb8:	e24dd00c 	sub	sp, sp, #12
    4ebc:	e28d3004 	add	r3, sp, #4
    4ec0:	ebfffdf3 	bl	4694 <fdt_get_property>
    4ec4:	e3500000 	cmp	r0, #0
    4ec8:	059d0004 	ldreq	r0, [sp, #4]
    4ecc:	0a000009 	beq	4ef8 <fdt_nop_property+0x44>
    4ed0:	e59d3004 	ldr	r3, [sp, #4]
    4ed4:	e283300c 	add	r3, r3, #12
    4ed8:	e0803003 	add	r3, r0, r3
    4edc:	e1500003 	cmp	r0, r3
    4ee0:	33a02301 	movcc	r2, #67108864	; 0x4000000
    4ee4:	2a000002 	bcs	4ef4 <fdt_nop_property+0x40>
    4ee8:	e4802004 	str	r2, [r0], #4
    4eec:	e1500003 	cmp	r0, r3
    4ef0:	3afffffc 	bcc	4ee8 <fdt_nop_property+0x34>
    4ef4:	e3a00000 	mov	r0, #0
    4ef8:	e28dd00c 	add	sp, sp, #12
    4efc:	e49df004 	pop	{pc}		; (ldr pc, [sp], #4)

00004f00 <_fdt_node_end_offset>:
    4f00:	e92d4030 	push	{r4, r5, lr}
    4f04:	e3510000 	cmp	r1, #0
    4f08:	e24dd00c 	sub	sp, sp, #12
    4f0c:	e3a03000 	mov	r3, #0
    4f10:	e1a04000 	mov	r4, r0
    4f14:	e58d3004 	str	r3, [sp, #4]
    4f18:	ba000008 	blt	4f40 <_fdt_node_end_offset+0x40>
    4f1c:	e28d5004 	add	r5, sp, #4
    4f20:	e1a00004 	mov	r0, r4
    4f24:	e1a02005 	mov	r2, r5
    4f28:	eb0000b0 	bl	51f0 <fdt_next_node>
    4f2c:	e59d3004 	ldr	r3, [sp, #4]
    4f30:	e3500000 	cmp	r0, #0
    4f34:	a3530000 	cmpge	r3, #0
    4f38:	e1a01000 	mov	r1, r0
    4f3c:	aafffff7 	bge	4f20 <_fdt_node_end_offset+0x20>
    4f40:	e1a00001 	mov	r0, r1
    4f44:	e28dd00c 	add	sp, sp, #12
    4f48:	e8bd8030 	pop	{r4, r5, pc}

00004f4c <fdt_nop_node>:
    4f4c:	e92d4070 	push	{r4, r5, r6, lr}
    4f50:	e1a06000 	mov	r6, r0
    4f54:	e1a04001 	mov	r4, r1
    4f58:	ebffffe8 	bl	4f00 <_fdt_node_end_offset>
    4f5c:	e2505000 	subs	r5, r0, #0
    4f60:	ba00000d 	blt	4f9c <fdt_nop_node+0x50>
    4f64:	e3a02000 	mov	r2, #0
    4f68:	e1a00006 	mov	r0, r6
    4f6c:	e1a01004 	mov	r1, r4
    4f70:	eb000029 	bl	501c <fdt_offset_ptr>
    4f74:	e0643005 	rsb	r3, r4, r5
    4f78:	e0803003 	add	r3, r0, r3
    4f7c:	e1500003 	cmp	r0, r3
    4f80:	33a02301 	movcc	r2, #67108864	; 0x4000000
    4f84:	2a000002 	bcs	4f94 <fdt_nop_node+0x48>
    4f88:	e4802004 	str	r2, [r0], #4
    4f8c:	e1500003 	cmp	r0, r3
    4f90:	3afffffc 	bcc	4f88 <fdt_nop_node+0x3c>
    4f94:	e3a00000 	mov	r0, #0
    4f98:	e8bd8070 	pop	{r4, r5, r6, pc}
    4f9c:	e1a00005 	mov	r0, r5
    4fa0:	e8bd8070 	pop	{r4, r5, r6, pc}

00004fa4 <fdt_check_header>:
    4fa4:	e5902000 	ldr	r2, [r0]
    4fa8:	e30f3eed 	movw	r3, #65261	; 0xfeed
    4fac:	e34d300d 	movt	r3, #53261	; 0xd00d
    4fb0:	e6bf2f32 	rev	r2, r2
    4fb4:	e1520003 	cmp	r2, r3
    4fb8:	0a000009 	beq	4fe4 <fdt_check_header+0x40>
    4fbc:	e3003112 	movw	r3, #274	; 0x112
    4fc0:	e3423ff2 	movt	r3, #12274	; 0x2ff2
    4fc4:	e1520003 	cmp	r2, r3
    4fc8:	1a000011 	bne	5014 <fdt_check_header+0x70>
    4fcc:	e5903024 	ldr	r3, [r0, #36]	; 0x24
    4fd0:	e6bf3f33 	rev	r3, r3
    4fd4:	e3530000 	cmp	r3, #0
    4fd8:	1a000009 	bne	5004 <fdt_check_header+0x60>
    4fdc:	e3e00006 	mvn	r0, #6
    4fe0:	e12fff1e 	bx	lr
    4fe4:	e5903014 	ldr	r3, [r0, #20]
    4fe8:	e6bf3f33 	rev	r3, r3
    4fec:	e353000f 	cmp	r3, #15
    4ff0:	9a000005 	bls	500c <fdt_check_header+0x68>
    4ff4:	e5903018 	ldr	r3, [r0, #24]
    4ff8:	e6bf3f33 	rev	r3, r3
    4ffc:	e3530011 	cmp	r3, #17
    5000:	8a000001 	bhi	500c <fdt_check_header+0x68>
    5004:	e3a00000 	mov	r0, #0
    5008:	e12fff1e 	bx	lr
    500c:	e3e00009 	mvn	r0, #9
    5010:	e12fff1e 	bx	lr
    5014:	e3e00008 	mvn	r0, #8
    5018:	e12fff1e 	bx	lr

0000501c <fdt_offset_ptr>:
    501c:	e5903014 	ldr	r3, [r0, #20]
    5020:	e6bf3f33 	rev	r3, r3
    5024:	e3530010 	cmp	r3, #16
    5028:	9a000005 	bls	5044 <fdt_offset_ptr+0x28>
    502c:	e0913002 	adds	r3, r1, r2
    5030:	2a00000a 	bcs	5060 <fdt_offset_ptr+0x44>
    5034:	e590c024 	ldr	ip, [r0, #36]	; 0x24
    5038:	e6bfcf3c 	rev	ip, ip
    503c:	e153000c 	cmp	r3, ip
    5040:	8a000006 	bhi	5060 <fdt_offset_ptr+0x44>
    5044:	e5903008 	ldr	r3, [r0, #8]
    5048:	e6bf3f33 	rev	r3, r3
    504c:	e0831001 	add	r1, r3, r1
    5050:	e0800001 	add	r0, r0, r1
    5054:	e1700002 	cmn	r0, r2
    5058:	23a00000 	movcs	r0, #0
    505c:	e12fff1e 	bx	lr
    5060:	e3a00000 	mov	r0, #0
    5064:	e12fff1e 	bx	lr

00005068 <fdt_next_tag>:
    5068:	e92d43f8 	push	{r3, r4, r5, r6, r7, r8, r9, lr}
    506c:	e1a07002 	mov	r7, r2
    5070:	e3e03007 	mvn	r3, #7
    5074:	e3a02004 	mov	r2, #4
    5078:	e5873000 	str	r3, [r7]
    507c:	e1a06000 	mov	r6, r0
    5080:	e1a08001 	mov	r8, r1
    5084:	ebffffe4 	bl	501c <fdt_offset_ptr>
    5088:	e3500000 	cmp	r0, #0
    508c:	0a00001c 	beq	5104 <fdt_next_tag+0x9c>
    5090:	e5909000 	ldr	r9, [r0]
    5094:	e3e0300a 	mvn	r3, #10
    5098:	e5873000 	str	r3, [r7]
    509c:	e2884004 	add	r4, r8, #4
    50a0:	e6bf9f39 	rev	r9, r9
    50a4:	e2493001 	sub	r3, r9, #1
    50a8:	e3530008 	cmp	r3, #8
    50ac:	908ff103 	addls	pc, pc, r3, lsl #2
    50b0:	ea000013 	b	5104 <fdt_next_tag+0x9c>
    50b4:	ea00000a 	b	50e4 <fdt_next_tag+0x7c>
    50b8:	ea00001d 	b	5134 <fdt_next_tag+0xcc>
    50bc:	ea000012 	b	510c <fdt_next_tag+0xa4>
    50c0:	ea00001b 	b	5134 <fdt_next_tag+0xcc>
    50c4:	ea00000e 	b	5104 <fdt_next_tag+0x9c>
    50c8:	ea00000d 	b	5104 <fdt_next_tag+0x9c>
    50cc:	ea00000c 	b	5104 <fdt_next_tag+0x9c>
    50d0:	ea00000b 	b	5104 <fdt_next_tag+0x9c>
    50d4:	ea000016 	b	5134 <fdt_next_tag+0xcc>
    50d8:	e5d03000 	ldrb	r3, [r0]
    50dc:	e3530000 	cmp	r3, #0
    50e0:	0a00001e 	beq	5160 <fdt_next_tag+0xf8>
    50e4:	e1a01004 	mov	r1, r4
    50e8:	e3a02001 	mov	r2, #1
    50ec:	e1a00006 	mov	r0, r6
    50f0:	e0845002 	add	r5, r4, r2
    50f4:	ebffffc8 	bl	501c <fdt_offset_ptr>
    50f8:	e1a04005 	mov	r4, r5
    50fc:	e3500000 	cmp	r0, #0
    5100:	1afffff4 	bne	50d8 <fdt_next_tag+0x70>
    5104:	e3a00009 	mov	r0, #9
    5108:	e8bd83f8 	pop	{r3, r4, r5, r6, r7, r8, r9, pc}
    510c:	e1a01004 	mov	r1, r4
    5110:	e1a00006 	mov	r0, r6
    5114:	e3a02004 	mov	r2, #4
    5118:	ebffffbf 	bl	501c <fdt_offset_ptr>
    511c:	e3500000 	cmp	r0, #0
    5120:	0afffff7 	beq	5104 <fdt_next_tag+0x9c>
    5124:	e5903000 	ldr	r3, [r0]
    5128:	e288400c 	add	r4, r8, #12
    512c:	e6bf3f33 	rev	r3, r3
    5130:	e0844003 	add	r4, r4, r3
    5134:	e1a01008 	mov	r1, r8
    5138:	e1a00006 	mov	r0, r6
    513c:	e0682004 	rsb	r2, r8, r4
    5140:	ebffffb5 	bl	501c <fdt_offset_ptr>
    5144:	e3500000 	cmp	r0, #0
    5148:	0affffed 	beq	5104 <fdt_next_tag+0x9c>
    514c:	e2844003 	add	r4, r4, #3
    5150:	e1a00009 	mov	r0, r9
    5154:	e3c44003 	bic	r4, r4, #3
    5158:	e5874000 	str	r4, [r7]
    515c:	e8bd83f8 	pop	{r3, r4, r5, r6, r7, r8, r9, pc}
    5160:	e1a04005 	mov	r4, r5
    5164:	eafffff2 	b	5134 <fdt_next_tag+0xcc>

00005168 <_fdt_check_node_offset>:
    5168:	e52de004 	push	{lr}		; (str lr, [sp, #-4]!)
    516c:	e2513000 	subs	r3, r1, #0
    5170:	e24dd00c 	sub	sp, sp, #12
    5174:	e58d1004 	str	r1, [sp, #4]
    5178:	ba000008 	blt	51a0 <_fdt_check_node_offset+0x38>
    517c:	e3130003 	tst	r3, #3
    5180:	1a000006 	bne	51a0 <_fdt_check_node_offset+0x38>
    5184:	e28d2004 	add	r2, sp, #4
    5188:	ebffffb6 	bl	5068 <fdt_next_tag>
    518c:	e3500001 	cmp	r0, #1
    5190:	1a000002 	bne	51a0 <_fdt_check_node_offset+0x38>
    5194:	e59d0004 	ldr	r0, [sp, #4]
    5198:	e28dd00c 	add	sp, sp, #12
    519c:	e49df004 	pop	{pc}		; (ldr pc, [sp], #4)
    51a0:	e3e00003 	mvn	r0, #3
    51a4:	e28dd00c 	add	sp, sp, #12
    51a8:	e49df004 	pop	{pc}		; (ldr pc, [sp], #4)

000051ac <_fdt_check_prop_offset>:
    51ac:	e52de004 	push	{lr}		; (str lr, [sp, #-4]!)
    51b0:	e2513000 	subs	r3, r1, #0
    51b4:	e24dd00c 	sub	sp, sp, #12
    51b8:	e58d1004 	str	r1, [sp, #4]
    51bc:	ba000008 	blt	51e4 <_fdt_check_prop_offset+0x38>
    51c0:	e3130003 	tst	r3, #3
    51c4:	1a000006 	bne	51e4 <_fdt_check_prop_offset+0x38>
    51c8:	e28d2004 	add	r2, sp, #4
    51cc:	ebffffa5 	bl	5068 <fdt_next_tag>
    51d0:	e3500003 	cmp	r0, #3
    51d4:	1a000002 	bne	51e4 <_fdt_check_prop_offset+0x38>
    51d8:	e59d0004 	ldr	r0, [sp, #4]
    51dc:	e28dd00c 	add	sp, sp, #12
    51e0:	e49df004 	pop	{pc}		; (ldr pc, [sp], #4)
    51e4:	e3e00003 	mvn	r0, #3
    51e8:	e28dd00c 	add	sp, sp, #12
    51ec:	e49df004 	pop	{pc}		; (ldr pc, [sp], #4)

000051f0 <fdt_next_node>:
    51f0:	e92d40f0 	push	{r4, r5, r6, r7, lr}
    51f4:	e3510000 	cmp	r1, #0
    51f8:	e24dd00c 	sub	sp, sp, #12
    51fc:	e3a04000 	mov	r4, #0
    5200:	e1a05002 	mov	r5, r2
    5204:	e1a06000 	mov	r6, r0
    5208:	e58d4004 	str	r4, [sp, #4]
    520c:	ba000004 	blt	5224 <fdt_next_node+0x34>
    5210:	ebffffd4 	bl	5168 <_fdt_check_node_offset>
    5214:	e1500004 	cmp	r0, r4
    5218:	e58d0004 	str	r0, [sp, #4]
    521c:	e1a04000 	mov	r4, r0
    5220:	ba000010 	blt	5268 <fdt_next_node+0x78>
    5224:	e28d7004 	add	r7, sp, #4
    5228:	e1a00006 	mov	r0, r6
    522c:	e1a01004 	mov	r1, r4
    5230:	e1a02007 	mov	r2, r7
    5234:	ebffff8b 	bl	5068 <fdt_next_tag>
    5238:	e3500002 	cmp	r0, #2
    523c:	0a000015 	beq	5298 <fdt_next_node+0xa8>
    5240:	e3500009 	cmp	r0, #9
    5244:	0a00000a 	beq	5274 <fdt_next_node+0x84>
    5248:	e3500001 	cmp	r0, #1
    524c:	0a000001 	beq	5258 <fdt_next_node+0x68>
    5250:	e59d4004 	ldr	r4, [sp, #4]
    5254:	eafffff3 	b	5228 <fdt_next_node+0x38>
    5258:	e3550000 	cmp	r5, #0
    525c:	15953000 	ldrne	r3, [r5]
    5260:	12833001 	addne	r3, r3, #1
    5264:	15853000 	strne	r3, [r5]
    5268:	e1a00004 	mov	r0, r4
    526c:	e28dd00c 	add	sp, sp, #12
    5270:	e8bd80f0 	pop	{r4, r5, r6, r7, pc}
    5274:	e59d4004 	ldr	r4, [sp, #4]
    5278:	e3540000 	cmp	r4, #0
    527c:	aa000003 	bge	5290 <fdt_next_node+0xa0>
    5280:	e3740008 	cmn	r4, #8
    5284:	1afffff7 	bne	5268 <fdt_next_node+0x78>
    5288:	e3550000 	cmp	r5, #0
    528c:	1afffff5 	bne	5268 <fdt_next_node+0x78>
    5290:	e3e04000 	mvn	r4, #0
    5294:	eafffff3 	b	5268 <fdt_next_node+0x78>
    5298:	e3550000 	cmp	r5, #0
    529c:	0affffeb 	beq	5250 <fdt_next_node+0x60>
    52a0:	e5953000 	ldr	r3, [r5]
    52a4:	e2433001 	sub	r3, r3, #1
    52a8:	e5853000 	str	r3, [r5]
    52ac:	e3530000 	cmp	r3, #0
    52b0:	aaffffe6 	bge	5250 <fdt_next_node+0x60>
    52b4:	e59d4004 	ldr	r4, [sp, #4]
    52b8:	eaffffea 	b	5268 <fdt_next_node+0x78>

000052bc <_fdt_find_string>:
    52bc:	e92d40f8 	push	{r3, r4, r5, r6, r7, lr}
    52c0:	e1a04000 	mov	r4, r0
    52c4:	e1a00002 	mov	r0, r2
    52c8:	e1a07001 	mov	r7, r1
    52cc:	e1a06002 	mov	r6, r2
    52d0:	ebfff8d0 	bl	3618 <strlen>
    52d4:	e2805001 	add	r5, r0, #1
    52d8:	e0657007 	rsb	r7, r5, r7
    52dc:	e0947007 	adds	r7, r4, r7
    52e0:	3a000003 	bcc	52f4 <_fdt_find_string+0x38>
    52e4:	ea00000a 	b	5314 <_fdt_find_string+0x58>
    52e8:	e2844001 	add	r4, r4, #1
    52ec:	e1570004 	cmp	r7, r4
    52f0:	3a000007 	bcc	5314 <_fdt_find_string+0x58>
    52f4:	e1a00004 	mov	r0, r4
    52f8:	e1a01006 	mov	r1, r6
    52fc:	e1a02005 	mov	r2, r5
    5300:	ebfff8cc 	bl	3638 <memcmp>
    5304:	e3500000 	cmp	r0, #0
    5308:	1afffff6 	bne	52e8 <_fdt_find_string+0x2c>
    530c:	e1a00004 	mov	r0, r4
    5310:	e8bd80f8 	pop	{r3, r4, r5, r6, r7, pc}
    5314:	e3a00000 	mov	r0, #0
    5318:	e8bd80f8 	pop	{r3, r4, r5, r6, r7, pc}

0000531c <fdt_move>:
    531c:	e92d40f8 	push	{r3, r4, r5, r6, r7, lr}
    5320:	e1a07001 	mov	r7, r1
    5324:	e1a06002 	mov	r6, r2
    5328:	e1a04000 	mov	r4, r0
    532c:	ebffff1c 	bl	4fa4 <fdt_check_header>
    5330:	e2505000 	subs	r5, r0, #0
    5334:	1a000008 	bne	535c <fdt_move+0x40>
    5338:	e5942004 	ldr	r2, [r4, #4]
    533c:	e6bf2f32 	rev	r2, r2
    5340:	e1520006 	cmp	r2, r6
    5344:	8a000006 	bhi	5364 <fdt_move+0x48>
    5348:	e1a00007 	mov	r0, r7
    534c:	e1a01004 	mov	r1, r4
    5350:	ebfff8a1 	bl	35dc <memmove>
    5354:	e1a00005 	mov	r0, r5
    5358:	e8bd80f8 	pop	{r3, r4, r5, r6, r7, pc}
    535c:	e1a00005 	mov	r0, r5
    5360:	e8bd80f8 	pop	{r3, r4, r5, r6, r7, pc}
    5364:	e3e00002 	mvn	r0, #2
    5368:	e8bd80f8 	pop	{r3, r4, r5, r6, r7, pc}

0000536c <node_offset>:
    536c:	e92d4038 	push	{r3, r4, r5, lr}
    5370:	e1a05000 	mov	r5, r0
    5374:	e1a04001 	mov	r4, r1
    5378:	ebfffd37 	bl	485c <fdt_path_offset>
    537c:	e3700001 	cmn	r0, #1
    5380:	18bd8038 	popne	{r3, r4, r5, pc}
    5384:	e1a00005 	mov	r0, r5
    5388:	e1a02004 	mov	r2, r4
    538c:	e3a01000 	mov	r1, #0
    5390:	e8bd4038 	pop	{r3, r4, r5, lr}
    5394:	eafffb1a 	b	4004 <fdt_add_subnode>

00005398 <setprop_cell.constprop.2>:
    5398:	e92d4070 	push	{r4, r5, r6, lr}
    539c:	e1a04001 	mov	r4, r1
    53a0:	e59f1044 	ldr	r1, [pc, #68]	; 53ec <setprop_cell.constprop.2+0x54>
    53a4:	e24dd010 	sub	sp, sp, #16
    53a8:	e1a06002 	mov	r6, r2
    53ac:	e1a05000 	mov	r5, r0
    53b0:	e08f1001 	add	r1, pc, r1
    53b4:	ebffffec 	bl	536c <node_offset>
    53b8:	e2501000 	subs	r1, r0, #0
    53bc:	b1a00001 	movlt	r0, r1
    53c0:	ba000007 	blt	53e4 <setprop_cell.constprop.2+0x4c>
    53c4:	e28d3010 	add	r3, sp, #16
    53c8:	e6bf6f36 	rev	r6, r6
    53cc:	e3a0c004 	mov	ip, #4
    53d0:	e1a00005 	mov	r0, r5
    53d4:	e5236004 	str	r6, [r3, #-4]!
    53d8:	e1a02004 	mov	r2, r4
    53dc:	e58dc000 	str	ip, [sp]
    53e0:	ebfffa33 	bl	3cb4 <fdt_setprop>
    53e4:	e28dd010 	add	sp, sp, #16
    53e8:	e8bd8070 	pop	{r4, r5, r6, pc}
    53ec:	0000130c 	.word	0x0000130c

000053f0 <atags_to_fdt>:
    53f0:	e92d4ff0 	push	{r4, r5, r6, r7, r8, r9, sl, fp, lr}
    53f4:	e1a04000 	mov	r4, r0
    53f8:	e2100003 	ands	r0, r0, #3
    53fc:	e24dd0a4 	sub	sp, sp, #164	; 0xa4
    5400:	e1a05001 	mov	r5, r1
    5404:	1a000009 	bne	5430 <atags_to_fdt+0x40>
    5408:	e5948000 	ldr	r8, [r4]
    540c:	e3a03edd 	mov	r3, #3536	; 0xdd0
    5410:	e34e3dfe 	movt	r3, #60926	; 0xedfe
    5414:	e1580003 	cmp	r8, r3
    5418:	0a000005 	beq	5434 <atags_to_fdt+0x44>
    541c:	e5940004 	ldr	r0, [r4, #4]
    5420:	e3a03001 	mov	r3, #1
    5424:	e3453441 	movt	r3, #21569	; 0x5441
    5428:	e1500003 	cmp	r0, r3
    542c:	0a000002 	beq	543c <atags_to_fdt+0x4c>
    5430:	e3a00001 	mov	r0, #1
    5434:	e28dd0a4 	add	sp, sp, #164	; 0xa4
    5438:	e8bd8ff0 	pop	{r4, r5, r6, r7, r8, r9, sl, fp, pc}
    543c:	e3580002 	cmp	r8, #2
    5440:	13580005 	cmpne	r8, #5
    5444:	03a08000 	moveq	r8, #0
    5448:	13a08001 	movne	r8, #1
    544c:	1afffff7 	bne	5430 <atags_to_fdt+0x40>
    5450:	e1a00001 	mov	r0, r1
    5454:	ebfffb0c 	bl	408c <fdt_open_into>
    5458:	e3500000 	cmp	r0, #0
    545c:	bafffff4 	blt	5434 <atags_to_fdt+0x44>
    5460:	e5943000 	ldr	r3, [r4]
    5464:	e3530000 	cmp	r3, #0
    5468:	0a000063 	beq	55fc <atags_to_fdt+0x20c>
    546c:	e59fc208 	ldr	ip, [pc, #520]	; 567c <atags_to_fdt+0x28c>
    5470:	e3a06009 	mov	r6, #9
    5474:	e59fa204 	ldr	sl, [pc, #516]	; 5680 <atags_to_fdt+0x290>
    5478:	e3a07005 	mov	r7, #5
    547c:	e08fc00c 	add	ip, pc, ip
    5480:	e59f91fc 	ldr	r9, [pc, #508]	; 5684 <atags_to_fdt+0x294>
    5484:	e58dc00c 	str	ip, [sp, #12]
    5488:	e08fa00a 	add	sl, pc, sl
    548c:	e59fc1f4 	ldr	ip, [pc, #500]	; 5688 <atags_to_fdt+0x298>
    5490:	e08f9009 	add	r9, pc, r9
    5494:	e3456441 	movt	r6, #21569	; 0x5441
    5498:	e3457442 	movt	r7, #21570	; 0x5442
    549c:	e08fc00c 	add	ip, pc, ip
    54a0:	e58dc010 	str	ip, [sp, #16]
    54a4:	ea000006 	b	54c4 <atags_to_fdt+0xd4>
    54a8:	e1530007 	cmp	r3, r7
    54ac:	0a000055 	beq	5608 <atags_to_fdt+0x218>
    54b0:	e5943000 	ldr	r3, [r4]
    54b4:	e1a03103 	lsl	r3, r3, #2
    54b8:	e7b43003 	ldr	r3, [r4, r3]!
    54bc:	e3530000 	cmp	r3, #0
    54c0:	0a00003c 	beq	55b8 <atags_to_fdt+0x1c8>
    54c4:	e5943004 	ldr	r3, [r4, #4]
    54c8:	e1530006 	cmp	r3, r6
    54cc:	0a000026 	beq	556c <atags_to_fdt+0x17c>
    54d0:	e3a02002 	mov	r2, #2
    54d4:	e3452441 	movt	r2, #21569	; 0x5441
    54d8:	e1530002 	cmp	r3, r2
    54dc:	1afffff1 	bne	54a8 <atags_to_fdt+0xb8>
    54e0:	e358001f 	cmp	r8, #31
    54e4:	8afffff1 	bhi	54b0 <atags_to_fdt+0xc0>
    54e8:	e5943008 	ldr	r3, [r4, #8]
    54ec:	e3530000 	cmp	r3, #0
    54f0:	0affffee 	beq	54b0 <atags_to_fdt+0xc0>
    54f4:	e1a00005 	mov	r0, r5
    54f8:	e59d100c 	ldr	r1, [sp, #12]
    54fc:	ebfffcd6 	bl	485c <fdt_path_offset>
    5500:	e3700001 	cmn	r0, #1
    5504:	0a000059 	beq	5670 <atags_to_fdt+0x280>
    5508:	e1a01000 	mov	r1, r0
    550c:	e59d2010 	ldr	r2, [sp, #16]
    5510:	e1a00005 	mov	r0, r5
    5514:	e28d301c 	add	r3, sp, #28
    5518:	ebfffc88 	bl	4740 <fdt_getprop>
    551c:	e3500000 	cmp	r0, #0
    5520:	0a000052 	beq	5670 <atags_to_fdt+0x280>
    5524:	e5903000 	ldr	r3, [r0]
    5528:	e6bf3f33 	rev	r3, r3
    552c:	e58d3014 	str	r3, [sp, #20]
    5530:	e3530002 	cmp	r3, #2
    5534:	0a000040 	beq	563c <atags_to_fdt+0x24c>
    5538:	e2883001 	add	r3, r8, #1
    553c:	e28d20a0 	add	r2, sp, #160	; 0xa0
    5540:	e28dc0a0 	add	ip, sp, #160	; 0xa0
    5544:	e594000c 	ldr	r0, [r4, #12]
    5548:	e0821108 	add	r1, r2, r8, lsl #2
    554c:	e08c3103 	add	r3, ip, r3, lsl #2
    5550:	e5942008 	ldr	r2, [r4, #8]
    5554:	e6bf0f30 	rev	r0, r0
    5558:	e2888002 	add	r8, r8, #2
    555c:	e5010080 	str	r0, [r1, #-128]	; 0xffffff80
    5560:	e6bf2f32 	rev	r2, r2
    5564:	e5032080 	str	r2, [r3, #-128]	; 0xffffff80
    5568:	eaffffd0 	b	54b0 <atags_to_fdt+0xc0>
    556c:	e59f1118 	ldr	r1, [pc, #280]	; 568c <atags_to_fdt+0x29c>
    5570:	e1a00005 	mov	r0, r5
    5574:	e08f1001 	add	r1, pc, r1
    5578:	ebffff7b 	bl	536c <node_offset>
    557c:	e2501000 	subs	r1, r0, #0
    5580:	baffffca 	blt	54b0 <atags_to_fdt+0xc0>
    5584:	e284b008 	add	fp, r4, #8
    5588:	e58d1008 	str	r1, [sp, #8]
    558c:	e1a0000b 	mov	r0, fp
    5590:	ebfff820 	bl	3618 <strlen>
    5594:	e59f20f4 	ldr	r2, [pc, #244]	; 5690 <atags_to_fdt+0x2a0>
    5598:	e1a0300b 	mov	r3, fp
    559c:	e59d1008 	ldr	r1, [sp, #8]
    55a0:	e08f2002 	add	r2, pc, r2
    55a4:	e2800001 	add	r0, r0, #1
    55a8:	e58d0000 	str	r0, [sp]
    55ac:	e1a00005 	mov	r0, r5
    55b0:	ebfff9bf 	bl	3cb4 <fdt_setprop>
    55b4:	eaffffbd 	b	54b0 <atags_to_fdt+0xc0>
    55b8:	e3580000 	cmp	r8, #0
    55bc:	0a00000e 	beq	55fc <atags_to_fdt+0x20c>
    55c0:	e59f10cc 	ldr	r1, [pc, #204]	; 5694 <atags_to_fdt+0x2a4>
    55c4:	e1a00005 	mov	r0, r5
    55c8:	e08f1001 	add	r1, pc, r1
    55cc:	ebffff66 	bl	536c <node_offset>
    55d0:	e2501000 	subs	r1, r0, #0
    55d4:	ba000008 	blt	55fc <atags_to_fdt+0x20c>
    55d8:	e59d3014 	ldr	r3, [sp, #20]
    55dc:	e1a0c108 	lsl	ip, r8, #2
    55e0:	e59f20b0 	ldr	r2, [pc, #176]	; 5698 <atags_to_fdt+0x2a8>
    55e4:	e1a00005 	mov	r0, r5
    55e8:	e00c039c 	mul	ip, ip, r3
    55ec:	e08f2002 	add	r2, pc, r2
    55f0:	e28d3020 	add	r3, sp, #32
    55f4:	e58dc000 	str	ip, [sp]
    55f8:	ebfff9ad 	bl	3cb4 <fdt_setprop>
    55fc:	e1a00005 	mov	r0, r5
    5600:	ebfffb0f 	bl	4244 <fdt_pack>
    5604:	eaffff8a 	b	5434 <atags_to_fdt+0x44>
    5608:	e594b008 	ldr	fp, [r4, #8]
    560c:	e1a0100a 	mov	r1, sl
    5610:	e594300c 	ldr	r3, [r4, #12]
    5614:	e1a00005 	mov	r0, r5
    5618:	e1a0200b 	mov	r2, fp
    561c:	e58d3008 	str	r3, [sp, #8]
    5620:	ebffff5c 	bl	5398 <setprop_cell.constprop.2>
    5624:	e59d3008 	ldr	r3, [sp, #8]
    5628:	e1a00005 	mov	r0, r5
    562c:	e1a01009 	mov	r1, r9
    5630:	e083200b 	add	r2, r3, fp
    5634:	ebffff57 	bl	5398 <setprop_cell.constprop.2>
    5638:	eaffff9c 	b	54b0 <atags_to_fdt+0xc0>
    563c:	e28d10a0 	add	r1, sp, #160	; 0xa0
    5640:	e594200c 	ldr	r2, [r4, #12]
    5644:	e0813188 	add	r3, r1, r8, lsl #3
    5648:	e5941008 	ldr	r1, [r4, #8]
    564c:	e6bf2f32 	rev	r2, r2
    5650:	e2888002 	add	r8, r8, #2
    5654:	e503207c 	str	r2, [r3, #-124]	; 0xffffff84
    5658:	e6bf1f31 	rev	r1, r1
    565c:	e3a02000 	mov	r2, #0
    5660:	e5031074 	str	r1, [r3, #-116]	; 0xffffff8c
    5664:	e5032080 	str	r2, [r3, #-128]	; 0xffffff80
    5668:	e5032078 	str	r2, [r3, #-120]	; 0xffffff88
    566c:	eaffff8f 	b	54b0 <atags_to_fdt+0xc0>
    5670:	e3a0c001 	mov	ip, #1
    5674:	e58dc014 	str	ip, [sp, #20]
    5678:	eaffffae 	b	5538 <atags_to_fdt+0x148>
    567c:	00001254 	.word	0x00001254
    5680:	00001258 	.word	0x00001258
    5684:	00001264 	.word	0x00001264
    5688:	00001238 	.word	0x00001238
    568c:	00001148 	.word	0x00001148
    5690:	00001124 	.word	0x00001124
    5694:	00001140 	.word	0x00001140
    5698:	00001124 	.word	0x00001124

0000569c <__aeabi_uidiv>:
    569c:	e2512001 	subs	r2, r1, #1
    56a0:	01a0f00e 	moveq	pc, lr
    56a4:	3a0000b8 	bcc	598c <Ldiv0>
    56a8:	e1500001 	cmp	r0, r1
    56ac:	9a00001a 	bls	571c <__aeabi_uidiv+0x80>
    56b0:	e1110002 	tst	r1, r2
    56b4:	0a00001b 	beq	5728 <__aeabi_uidiv+0x8c>
    56b8:	e16f3f11 	clz	r3, r1
    56bc:	e16f2f10 	clz	r2, r0
    56c0:	e0432002 	sub	r2, r3, r2
    56c4:	e3a03001 	mov	r3, #1
    56c8:	e1a01211 	lsl	r1, r1, r2
    56cc:	e1a03213 	lsl	r3, r3, r2
    56d0:	e3a02000 	mov	r2, #0
    56d4:	e1500001 	cmp	r0, r1
    56d8:	20400001 	subcs	r0, r0, r1
    56dc:	21822003 	orrcs	r2, r2, r3
    56e0:	e15000a1 	cmp	r0, r1, lsr #1
    56e4:	204000a1 	subcs	r0, r0, r1, lsr #1
    56e8:	218220a3 	orrcs	r2, r2, r3, lsr #1
    56ec:	e1500121 	cmp	r0, r1, lsr #2
    56f0:	20400121 	subcs	r0, r0, r1, lsr #2
    56f4:	21822123 	orrcs	r2, r2, r3, lsr #2
    56f8:	e15001a1 	cmp	r0, r1, lsr #3
    56fc:	204001a1 	subcs	r0, r0, r1, lsr #3
    5700:	218221a3 	orrcs	r2, r2, r3, lsr #3
    5704:	e3500000 	cmp	r0, #0
    5708:	11b03223 	lsrsne	r3, r3, #4
    570c:	11a01221 	lsrne	r1, r1, #4
    5710:	1affffef 	bne	56d4 <__aeabi_uidiv+0x38>
    5714:	e1a00002 	mov	r0, r2
    5718:	e1a0f00e 	mov	pc, lr
    571c:	03a00001 	moveq	r0, #1
    5720:	13a00000 	movne	r0, #0
    5724:	e1a0f00e 	mov	pc, lr
    5728:	e16f2f11 	clz	r2, r1
    572c:	e262201f 	rsb	r2, r2, #31
    5730:	e1a00230 	lsr	r0, r0, r2
    5734:	e1a0f00e 	mov	pc, lr

00005738 <__umodsi3>:
    5738:	e2512001 	subs	r2, r1, #1
    573c:	3a000092 	bcc	598c <Ldiv0>
    5740:	11500001 	cmpne	r0, r1
    5744:	03a00000 	moveq	r0, #0
    5748:	81110002 	tsthi	r1, r2
    574c:	00000002 	andeq	r0, r0, r2
    5750:	91a0f00e 	movls	pc, lr
    5754:	e16f2f11 	clz	r2, r1
    5758:	e16f3f10 	clz	r3, r0
    575c:	e0422003 	sub	r2, r2, r3
    5760:	e1a01211 	lsl	r1, r1, r2
    5764:	e2522003 	subs	r2, r2, #3
    5768:	ba00000e 	blt	57a8 <__umodsi3+0x70>
    576c:	e1500001 	cmp	r0, r1
    5770:	20400001 	subcs	r0, r0, r1
    5774:	e15000a1 	cmp	r0, r1, lsr #1
    5778:	204000a1 	subcs	r0, r0, r1, lsr #1
    577c:	e1500121 	cmp	r0, r1, lsr #2
    5780:	20400121 	subcs	r0, r0, r1, lsr #2
    5784:	e15001a1 	cmp	r0, r1, lsr #3
    5788:	204001a1 	subcs	r0, r0, r1, lsr #3
    578c:	e3500001 	cmp	r0, #1
    5790:	e1a01221 	lsr	r1, r1, #4
    5794:	a2522004 	subsge	r2, r2, #4
    5798:	aafffff3 	bge	576c <__umodsi3+0x34>
    579c:	e3120003 	tst	r2, #3
    57a0:	13300000 	teqne	r0, #0
    57a4:	0a00000a 	beq	57d4 <__umodsi3+0x9c>
    57a8:	e3720002 	cmn	r2, #2
    57ac:	ba000006 	blt	57cc <__umodsi3+0x94>
    57b0:	0a000002 	beq	57c0 <__umodsi3+0x88>
    57b4:	e1500001 	cmp	r0, r1
    57b8:	20400001 	subcs	r0, r0, r1
    57bc:	e1a010a1 	lsr	r1, r1, #1
    57c0:	e1500001 	cmp	r0, r1
    57c4:	20400001 	subcs	r0, r0, r1
    57c8:	e1a010a1 	lsr	r1, r1, #1
    57cc:	e1500001 	cmp	r0, r1
    57d0:	20400001 	subcs	r0, r0, r1
    57d4:	e1a0f00e 	mov	pc, lr

000057d8 <__aeabi_idiv>:
    57d8:	e3510000 	cmp	r1, #0
    57dc:	e020c001 	eor	ip, r0, r1
    57e0:	0a000069 	beq	598c <Ldiv0>
    57e4:	42611000 	rsbmi	r1, r1, #0
    57e8:	e2512001 	subs	r2, r1, #1
    57ec:	0a00001f 	beq	5870 <__aeabi_idiv+0x98>
    57f0:	e1b03000 	movs	r3, r0
    57f4:	42603000 	rsbmi	r3, r0, #0
    57f8:	e1530001 	cmp	r3, r1
    57fc:	9a00001e 	bls	587c <__aeabi_idiv+0xa4>
    5800:	e1110002 	tst	r1, r2
    5804:	0a000020 	beq	588c <__aeabi_idiv+0xb4>
    5808:	e16f2f11 	clz	r2, r1
    580c:	e16f0f13 	clz	r0, r3
    5810:	e0420000 	sub	r0, r2, r0
    5814:	e3a02001 	mov	r2, #1
    5818:	e1a01011 	lsl	r1, r1, r0
    581c:	e1a02012 	lsl	r2, r2, r0
    5820:	e3a00000 	mov	r0, #0
    5824:	e1530001 	cmp	r3, r1
    5828:	20433001 	subcs	r3, r3, r1
    582c:	21800002 	orrcs	r0, r0, r2
    5830:	e15300a1 	cmp	r3, r1, lsr #1
    5834:	204330a1 	subcs	r3, r3, r1, lsr #1
    5838:	218000a2 	orrcs	r0, r0, r2, lsr #1
    583c:	e1530121 	cmp	r3, r1, lsr #2
    5840:	20433121 	subcs	r3, r3, r1, lsr #2
    5844:	21800122 	orrcs	r0, r0, r2, lsr #2
    5848:	e15301a1 	cmp	r3, r1, lsr #3
    584c:	204331a1 	subcs	r3, r3, r1, lsr #3
    5850:	218001a2 	orrcs	r0, r0, r2, lsr #3
    5854:	e3530000 	cmp	r3, #0
    5858:	11b02222 	lsrsne	r2, r2, #4
    585c:	11a01221 	lsrne	r1, r1, #4
    5860:	1affffef 	bne	5824 <__aeabi_idiv+0x4c>
    5864:	e35c0000 	cmp	ip, #0
    5868:	42600000 	rsbmi	r0, r0, #0
    586c:	e1a0f00e 	mov	pc, lr
    5870:	e13c0000 	teq	ip, r0
    5874:	42600000 	rsbmi	r0, r0, #0
    5878:	e1a0f00e 	mov	pc, lr
    587c:	33a00000 	movcc	r0, #0
    5880:	01a00fcc 	asreq	r0, ip, #31
    5884:	03800001 	orreq	r0, r0, #1
    5888:	e1a0f00e 	mov	pc, lr
    588c:	e16f2f11 	clz	r2, r1
    5890:	e262201f 	rsb	r2, r2, #31
    5894:	e35c0000 	cmp	ip, #0
    5898:	e1a00233 	lsr	r0, r3, r2
    589c:	42600000 	rsbmi	r0, r0, #0
    58a0:	e1a0f00e 	mov	pc, lr

000058a4 <__modsi3>:
    58a4:	e3510000 	cmp	r1, #0
    58a8:	0a000037 	beq	598c <Ldiv0>
    58ac:	42611000 	rsbmi	r1, r1, #0
    58b0:	e1b0c000 	movs	ip, r0
    58b4:	42600000 	rsbmi	r0, r0, #0
    58b8:	e2512001 	subs	r2, r1, #1
    58bc:	11500001 	cmpne	r0, r1
    58c0:	03a00000 	moveq	r0, #0
    58c4:	81110002 	tsthi	r1, r2
    58c8:	00000002 	andeq	r0, r0, r2
    58cc:	9a00001f 	bls	5950 <__modsi3+0xac>
    58d0:	e16f2f11 	clz	r2, r1
    58d4:	e16f3f10 	clz	r3, r0
    58d8:	e0422003 	sub	r2, r2, r3
    58dc:	e1a01211 	lsl	r1, r1, r2
    58e0:	e2522003 	subs	r2, r2, #3
    58e4:	ba00000e 	blt	5924 <__modsi3+0x80>
    58e8:	e1500001 	cmp	r0, r1
    58ec:	20400001 	subcs	r0, r0, r1
    58f0:	e15000a1 	cmp	r0, r1, lsr #1
    58f4:	204000a1 	subcs	r0, r0, r1, lsr #1
    58f8:	e1500121 	cmp	r0, r1, lsr #2
    58fc:	20400121 	subcs	r0, r0, r1, lsr #2
    5900:	e15001a1 	cmp	r0, r1, lsr #3
    5904:	204001a1 	subcs	r0, r0, r1, lsr #3
    5908:	e3500001 	cmp	r0, #1
    590c:	e1a01221 	lsr	r1, r1, #4
    5910:	a2522004 	subsge	r2, r2, #4
    5914:	aafffff3 	bge	58e8 <__modsi3+0x44>
    5918:	e3120003 	tst	r2, #3
    591c:	13300000 	teqne	r0, #0
    5920:	0a00000a 	beq	5950 <__modsi3+0xac>
    5924:	e3720002 	cmn	r2, #2
    5928:	ba000006 	blt	5948 <__modsi3+0xa4>
    592c:	0a000002 	beq	593c <__modsi3+0x98>
    5930:	e1500001 	cmp	r0, r1
    5934:	20400001 	subcs	r0, r0, r1
    5938:	e1a010a1 	lsr	r1, r1, #1
    593c:	e1500001 	cmp	r0, r1
    5940:	20400001 	subcs	r0, r0, r1
    5944:	e1a010a1 	lsr	r1, r1, #1
    5948:	e1500001 	cmp	r0, r1
    594c:	20400001 	subcs	r0, r0, r1
    5950:	e35c0000 	cmp	ip, #0
    5954:	42600000 	rsbmi	r0, r0, #0
    5958:	e1a0f00e 	mov	pc, lr

0000595c <__aeabi_uidivmod>:
    595c:	e92d5003 	push	{r0, r1, ip, lr}
    5960:	ebffff4d 	bl	569c <__aeabi_uidiv>
    5964:	e8bd5006 	pop	{r1, r2, ip, lr}
    5968:	e0030290 	mul	r3, r0, r2
    596c:	e0411003 	sub	r1, r1, r3
    5970:	e1a0f00e 	mov	pc, lr

00005974 <__aeabi_idivmod>:
    5974:	e92d5003 	push	{r0, r1, ip, lr}
    5978:	ebffff96 	bl	57d8 <__aeabi_idiv>
    597c:	e8bd5006 	pop	{r1, r2, ip, lr}
    5980:	e0030290 	mul	r3, r0, r2
    5984:	e0411003 	sub	r1, r1, r3
    5988:	e1a0f00e 	mov	pc, lr

0000598c <Ldiv0>:
    598c:	e52de008 	str	lr, [sp, #-8]!
    5990:	ebffec0c 	bl	9c8 <__div0>
    5994:	e3a00000 	mov	r0, #0
    5998:	e49df008 	ldr	pc, [sp], #8

0000599c <__aeabi_llsl>:
    599c:	e2523020 	subs	r3, r2, #32
    59a0:	e262c020 	rsb	ip, r2, #32
    59a4:	41a01211 	lslmi	r1, r1, r2
    59a8:	51a01310 	lslpl	r1, r0, r3
    59ac:	41811c30 	orrmi	r1, r1, r0, lsr ip
    59b0:	e1a00210 	lsl	r0, r0, r2
    59b4:	e1a0f00e 	mov	pc, lr

000059b8 <__bswapsi2>:
    59b8:	e6bf0f30 	rev	r0, r0
    59bc:	e12fff1e 	bx	lr

000059c0 <__bswapdi2>:
    59c0:	e6bf3f30 	rev	r3, r0
    59c4:	e6bf0f31 	rev	r0, r1
    59c8:	e1a01003 	mov	r1, r3
    59cc:	e12fff1e 	bx	lr
